
objs/l1/l2/l3//tests/2-test-i2c-scan.elf:     file format elf32-littlearm


Disassembly of section .text:

00008000 <__code_start__>:
    8000:	e3a00013 	mov	r0, #19, 0
    8004:	e3800080 	orr	r0, r0, #128, 0	; 0x80
    8008:	e129f000 	msr	CPSR_fc, r0
    800c:	e3a01000 	mov	r1, #0, 0
    8010:	ee071f95 	mcr	15, 0, r1, cr7, cr5, {4}
    8014:	e3a0d302 	mov	sp, #134217728	; 0x8000000
    8018:	e3a0b000 	mov	fp, #0, 0
    801c:	eb0003d7 	bl	8f80 <_cstart>
    8020:	eb00040c 	bl	9058 <rpi_reboot>

00008024 <PUT32>:
    8024:	e5801000 	str	r1, [r0]
    8028:	e12fff1e 	bx	lr

0000802c <GET32>:
    802c:	e5900000 	ldr	r0, [r0]
    8030:	e12fff1e 	bx	lr

00008034 <BRANCHTO>:
    8034:	e12fff10 	bx	r0

00008038 <my_i2c_init>:
    8038:	e92d4010 	push	{r4, lr}
    803c:	e3a01004 	mov	r1, #4, 0
    8040:	e3a0000b 	mov	r0, #11, 0
    8044:	eb0004a7 	bl	92e8 <gpio_set_function>
    8048:	e3a01004 	mov	r1, #4, 0
    804c:	e3a0000a 	mov	r0, #10, 0
    8050:	eb0004a4 	bl	92e8 <gpio_set_function>
    8054:	e3a0000b 	mov	r0, #11, 0
    8058:	eb000540 	bl	9560 <gpio_set_pullup>
    805c:	e3a0000a 	mov	r0, #10, 0
    8060:	eb00053e 	bl	9560 <gpio_set_pullup>
    8064:	e59f4048 	ldr	r4, [pc, #72]	; 80b4 <my_i2c_init+0x7c>
    8068:	e3a01000 	mov	r1, #0, 0
    806c:	e1a00004 	mov	r0, r4
    8070:	ebffffeb 	bl	8024 <PUT32>
    8074:	eb0003f1 	bl	9040 <dev_barrier>
    8078:	e59f1038 	ldr	r1, [pc, #56]	; 80b8 <my_i2c_init+0x80>
    807c:	e59f0038 	ldr	r0, [pc, #56]	; 80bc <my_i2c_init+0x84>
    8080:	ebffffe7 	bl	8024 <PUT32>
    8084:	eb0003ed 	bl	9040 <dev_barrier>
    8088:	e59f1030 	ldr	r1, [pc, #48]	; 80c0 <my_i2c_init+0x88>
    808c:	e59f0030 	ldr	r0, [pc, #48]	; 80c4 <my_i2c_init+0x8c>
    8090:	ebffffe3 	bl	8024 <PUT32>
    8094:	eb0003e9 	bl	9040 <dev_barrier>
    8098:	e3a01902 	mov	r1, #32768	; 0x8000
    809c:	e1a00004 	mov	r0, r4
    80a0:	ebffffdf 	bl	8024 <PUT32>
    80a4:	eb0003e5 	bl	9040 <dev_barrier>
    80a8:	e59f0018 	ldr	r0, [pc, #24]	; 80c8 <my_i2c_init+0x90>
    80ac:	eb00029f 	bl	8b30 <printk>
    80b0:	e8bd8010 	pop	{r4, pc}
    80b4:	20205000 	.word	0x20205000
    80b8:	00000302 	.word	0x00000302
    80bc:	20205004 	.word	0x20205004
    80c0:	000009c4 	.word	0x000009c4
    80c4:	20205014 	.word	0x20205014
    80c8:	000096b0 	.word	0x000096b0

000080cc <notmain>:
    80cc:	e92d4070 	push	{r4, r5, r6, lr}
    80d0:	e24dd008 	sub	sp, sp, #8, 0
    80d4:	eb00040e 	bl	9114 <uart_init>
    80d8:	e59f0150 	ldr	r0, [pc, #336]	; 8230 <notmain+0x164>
    80dc:	eb000293 	bl	8b30 <printk>
    80e0:	e3a00064 	mov	r0, #100, 0	; 0x64
    80e4:	eb0003fe 	bl	90e4 <delay_ms>
    80e8:	ebffffd2 	bl	8038 <my_i2c_init>
    80ec:	e59f0140 	ldr	r0, [pc, #320]	; 8234 <notmain+0x168>
    80f0:	eb00028e 	bl	8b30 <printk>
    80f4:	e3a00064 	mov	r0, #100, 0	; 0x64
    80f8:	eb0003f9 	bl	90e4 <delay_ms>
    80fc:	e3a05001 	mov	r5, #1, 0
    8100:	e3a06000 	mov	r6, #0, 0
    8104:	ea00001e 	b	8184 <notmain+0xb8>
    8108:	e59d3004 	ldr	r3, [sp, #4]
    810c:	e2833001 	add	r3, r3, #1, 0
    8110:	e58d3004 	str	r3, [sp, #4]
    8114:	e59d3004 	ldr	r3, [sp, #4]
    8118:	e3530031 	cmp	r3, #49, 0	; 0x31
    811c:	dafffff9 	ble	8108 <notmain+0x3c>
    8120:	e59f0110 	ldr	r0, [pc, #272]	; 8238 <notmain+0x16c>
    8124:	ebffffc0 	bl	802c <GET32>
    8128:	e3100002 	tst	r0, #2, 0
    812c:	1a000004 	bne	8144 <notmain+0x78>
    8130:	e3540000 	cmp	r4, #0, 0
    8134:	12444001 	subne	r4, r4, #1, 0
    8138:	13a03000 	movne	r3, #0, 0
    813c:	158d3004 	strne	r3, [sp, #4]
    8140:	1afffff3 	bne	8114 <notmain+0x48>
    8144:	e3540000 	cmp	r4, #0, 0
    8148:	0a000021 	beq	81d4 <notmain+0x108>
    814c:	e59f00e4 	ldr	r0, [pc, #228]	; 8238 <notmain+0x16c>
    8150:	ebffffb5 	bl	802c <GET32>
    8154:	e59f30e0 	ldr	r3, [pc, #224]	; 823c <notmain+0x170>
    8158:	e0033000 	and	r3, r3, r0
    815c:	e3530002 	cmp	r3, #2, 0
    8160:	0a000020 	beq	81e8 <notmain+0x11c>
    8164:	e3a01002 	mov	r1, #2, 0
    8168:	e59f00c8 	ldr	r0, [pc, #200]	; 8238 <notmain+0x16c>
    816c:	ebffffac 	bl	8024 <PUT32>
    8170:	eb0003b2 	bl	9040 <dev_barrier>
    8174:	e3a00005 	mov	r0, #5, 0
    8178:	eb0003d9 	bl	90e4 <delay_ms>
    817c:	e2855001 	add	r5, r5, #1, 0
    8180:	e6ef5075 	uxtb	r5, r5
    8184:	e3150080 	tst	r5, #128, 0	; 0x80
    8188:	1a00001b 	bne	81fc <notmain+0x130>
    818c:	e59f10ac 	ldr	r1, [pc, #172]	; 8240 <notmain+0x174>
    8190:	e59f00a0 	ldr	r0, [pc, #160]	; 8238 <notmain+0x16c>
    8194:	ebffffa2 	bl	8024 <PUT32>
    8198:	eb0003a8 	bl	9040 <dev_barrier>
    819c:	e1a01005 	mov	r1, r5
    81a0:	e59f009c 	ldr	r0, [pc, #156]	; 8244 <notmain+0x178>
    81a4:	ebffff9e 	bl	8024 <PUT32>
    81a8:	eb0003a4 	bl	9040 <dev_barrier>
    81ac:	e3a01000 	mov	r1, #0, 0
    81b0:	e59f0090 	ldr	r0, [pc, #144]	; 8248 <notmain+0x17c>
    81b4:	ebffff9a 	bl	8024 <PUT32>
    81b8:	eb0003a0 	bl	9040 <dev_barrier>
    81bc:	e3a010a0 	mov	r1, #160, 0	; 0xa0
    81c0:	e59f0084 	ldr	r0, [pc, #132]	; 824c <notmain+0x180>
    81c4:	ebffff96 	bl	8024 <PUT32>
    81c8:	eb00039c 	bl	9040 <dev_barrier>
    81cc:	e59f407c 	ldr	r4, [pc, #124]	; 8250 <notmain+0x184>
    81d0:	eaffffd2 	b	8120 <notmain+0x54>
    81d4:	e1a01005 	mov	r1, r5
    81d8:	e59f0074 	ldr	r0, [pc, #116]	; 8254 <notmain+0x188>
    81dc:	eb000253 	bl	8b30 <printk>
    81e0:	ebffff94 	bl	8038 <my_i2c_init>
    81e4:	eaffffe4 	b	817c <notmain+0xb0>
    81e8:	e1a01005 	mov	r1, r5
    81ec:	e59f0064 	ldr	r0, [pc, #100]	; 8258 <notmain+0x18c>
    81f0:	eb00024e 	bl	8b30 <printk>
    81f4:	e2866001 	add	r6, r6, #1, 0
    81f8:	eaffffd9 	b	8164 <notmain+0x98>
    81fc:	e3560000 	cmp	r6, #0, 0
    8200:	da000005 	ble	821c <notmain+0x150>
    8204:	e1a01006 	mov	r1, r6
    8208:	e59f004c 	ldr	r0, [pc, #76]	; 825c <notmain+0x190>
    820c:	eb000247 	bl	8b30 <printk>
    8210:	e59f0048 	ldr	r0, [pc, #72]	; 8260 <notmain+0x194>
    8214:	eb000245 	bl	8b30 <printk>
    8218:	eb00034d 	bl	8f54 <clean_reboot>
    821c:	e59f0040 	ldr	r0, [pc, #64]	; 8264 <notmain+0x198>
    8220:	eb000242 	bl	8b30 <printk>
    8224:	e59f003c 	ldr	r0, [pc, #60]	; 8268 <notmain+0x19c>
    8228:	eb000240 	bl	8b30 <printk>
    822c:	eafffff9 	b	8218 <notmain+0x14c>
    8230:	000096c4 	.word	0x000096c4
    8234:	000096d8 	.word	0x000096d8
    8238:	20205004 	.word	0x20205004
    823c:	00000102 	.word	0x00000102
    8240:	00000302 	.word	0x00000302
    8244:	2020500c 	.word	0x2020500c
    8248:	20205008 	.word	0x20205008
    824c:	20205000 	.word	0x20205000
    8250:	00002710 	.word	0x00002710
    8254:	00009704 	.word	0x00009704
    8258:	00009720 	.word	0x00009720
    825c:	00009744 	.word	0x00009744
    8260:	00009768 	.word	0x00009768
    8264:	0000978c 	.word	0x0000978c
    8268:	000097b0 	.word	0x000097b0

0000826c <clear_c>:
    826c:	e3c00b1e 	bic	r0, r0, #30720	; 0x7800
    8270:	e3c0004e 	bic	r0, r0, #78, 0	; 0x4e
    8274:	e6ff0070 	uxth	r0, r0
    8278:	e12fff1e 	bx	lr

0000827c <clear_s>:
    827c:	e1a00b00 	lsl	r0, r0, #22
    8280:	e1a00b20 	lsr	r0, r0, #22
    8284:	e12fff1e 	bx	lr

00008288 <xfer_end>:
    8288:	e52de004 	push	{lr}		; (str lr, [sp, #-4]!)
    828c:	e24dd00c 	sub	sp, sp, #12, 0
    8290:	e59f30c4 	ldr	r3, [pc, #196]	; 835c <xfer_end+0xd4>
    8294:	e5933004 	ldr	r3, [r3, #4]
    8298:	e3130002 	tst	r3, #2, 0
    829c:	1a000013 	bne	82f0 <xfer_end+0x68>
    82a0:	e59f30b4 	ldr	r3, [pc, #180]	; 835c <xfer_end+0xd4>
    82a4:	e5933004 	ldr	r3, [r3, #4]
    82a8:	e3130c01 	tst	r3, #256	; 0x100
    82ac:	1a000009 	bne	82d8 <xfer_end+0x50>
    82b0:	e59f30a4 	ldr	r3, [pc, #164]	; 835c <xfer_end+0xd4>
    82b4:	e5933004 	ldr	r3, [r3, #4]
    82b8:	e3130c02 	tst	r3, #512	; 0x200
    82bc:	0afffff3 	beq	8290 <xfer_end+0x8>
    82c0:	e3a03f46 	mov	r3, #280	; 0x118
    82c4:	e59f2094 	ldr	r2, [pc, #148]	; 8360 <xfer_end+0xd8>
    82c8:	e59f1094 	ldr	r1, [pc, #148]	; 8364 <xfer_end+0xdc>
    82cc:	e59f0094 	ldr	r0, [pc, #148]	; 8368 <xfer_end+0xe0>
    82d0:	eb000216 	bl	8b30 <printk>
    82d4:	eb00031e 	bl	8f54 <clean_reboot>
    82d8:	e3a03f46 	mov	r3, #280	; 0x118
    82dc:	e59f207c 	ldr	r2, [pc, #124]	; 8360 <xfer_end+0xd8>
    82e0:	e59f107c 	ldr	r1, [pc, #124]	; 8364 <xfer_end+0xdc>
    82e4:	e59f0080 	ldr	r0, [pc, #128]	; 836c <xfer_end+0xe4>
    82e8:	eb000210 	bl	8b30 <printk>
    82ec:	eb000318 	bl	8f54 <clean_reboot>
    82f0:	e59f3064 	ldr	r3, [pc, #100]	; 835c <xfer_end+0xd4>
    82f4:	e5933004 	ldr	r3, [r3, #4]
    82f8:	e3130001 	tst	r3, #1, 0
    82fc:	1a000006 	bne	831c <xfer_end+0x94>
    8300:	e59f3054 	ldr	r3, [pc, #84]	; 835c <xfer_end+0xd4>
    8304:	e5933004 	ldr	r3, [r3, #4]
    8308:	e3130c01 	tst	r3, #256	; 0x100
    830c:	1a00000a 	bne	833c <xfer_end+0xb4>
    8310:	eb00034a 	bl	9040 <dev_barrier>
    8314:	e28dd00c 	add	sp, sp, #12, 0
    8318:	e49df004 	pop	{pc}		; (ldr pc, [sp], #4)
    831c:	e59f304c 	ldr	r3, [pc, #76]	; 8370 <xfer_end+0xe8>
    8320:	e58d3000 	str	r3, [sp]
    8324:	e59f3048 	ldr	r3, [pc, #72]	; 8374 <xfer_end+0xec>
    8328:	e59f2030 	ldr	r2, [pc, #48]	; 8360 <xfer_end+0xd8>
    832c:	e59f1030 	ldr	r1, [pc, #48]	; 8364 <xfer_end+0xdc>
    8330:	e59f0040 	ldr	r0, [pc, #64]	; 8378 <xfer_end+0xf0>
    8334:	eb0001fd 	bl	8b30 <printk>
    8338:	eb000305 	bl	8f54 <clean_reboot>
    833c:	e59f3038 	ldr	r3, [pc, #56]	; 837c <xfer_end+0xf4>
    8340:	e58d3000 	str	r3, [sp]
    8344:	e59f3034 	ldr	r3, [pc, #52]	; 8380 <xfer_end+0xf8>
    8348:	e59f2010 	ldr	r2, [pc, #16]	; 8360 <xfer_end+0xd8>
    834c:	e59f1010 	ldr	r1, [pc, #16]	; 8364 <xfer_end+0xdc>
    8350:	e59f0020 	ldr	r0, [pc, #32]	; 8378 <xfer_end+0xf0>
    8354:	eb0001f5 	bl	8b30 <printk>
    8358:	eb0002fd 	bl	8f54 <clean_reboot>
    835c:	20804000 	.word	0x20804000
    8360:	00009978 	.word	0x00009978
    8364:	000097e8 	.word	0x000097e8
    8368:	00009814 	.word	0x00009814
    836c:	000097f0 	.word	0x000097f0
    8370:	00009874 	.word	0x00009874
    8374:	0000011b 	.word	0x0000011b
    8378:	00009844 	.word	0x00009844
    837c:	00009888 	.word	0x00009888
    8380:	0000011d 	.word	0x0000011d

00008384 <read_s>:
    8384:	e92d4010 	push	{r4, lr}
    8388:	ebffff27 	bl	802c <GET32>
    838c:	ebffffba 	bl	827c <clear_s>
    8390:	e8bd8010 	pop	{r4, pc}

00008394 <reset_status>:
    8394:	e92d4010 	push	{r4, lr}
    8398:	e59f4018 	ldr	r4, [pc, #24]	; 83b8 <reset_status+0x24>
    839c:	e1a00004 	mov	r0, r4
    83a0:	ebfffff7 	bl	8384 <read_s>
    83a4:	e3801c03 	orr	r1, r0, #768	; 0x300
    83a8:	e3811002 	orr	r1, r1, #2, 0
    83ac:	e1a00004 	mov	r0, r4
    83b0:	ebffff1b 	bl	8024 <PUT32>
    83b4:	e8bd8010 	pop	{r4, pc}
    83b8:	20804004 	.word	0x20804004

000083bc <read_c>:
    83bc:	e92d4010 	push	{r4, lr}
    83c0:	ebffff19 	bl	802c <GET32>
    83c4:	ebffffa8 	bl	826c <clear_c>
    83c8:	e8bd8010 	pop	{r4, pc}

000083cc <xfer_start>:
    83cc:	e92d4070 	push	{r4, r5, r6, lr}
    83d0:	e24dd008 	sub	sp, sp, #8, 0
    83d4:	e1a06000 	mov	r6, r0
    83d8:	e1a05001 	mov	r5, r1
    83dc:	e1a04002 	mov	r4, r2
    83e0:	eb000316 	bl	9040 <dev_barrier>
    83e4:	e59f3180 	ldr	r3, [pc, #384]	; 856c <xfer_start+0x1a0>
    83e8:	e5933004 	ldr	r3, [r3, #4]
    83ec:	e3130001 	tst	r3, #1, 0
    83f0:	0a000013 	beq	8444 <xfer_start+0x78>
    83f4:	e59f3170 	ldr	r3, [pc, #368]	; 856c <xfer_start+0x1a0>
    83f8:	e5933004 	ldr	r3, [r3, #4]
    83fc:	e3130c01 	tst	r3, #256	; 0x100
    8400:	1a000009 	bne	842c <xfer_start+0x60>
    8404:	e59f3160 	ldr	r3, [pc, #352]	; 856c <xfer_start+0x1a0>
    8408:	e5933004 	ldr	r3, [r3, #4]
    840c:	e3130c02 	tst	r3, #512	; 0x200
    8410:	0afffff3 	beq	83e4 <xfer_start+0x18>
    8414:	e3a030f7 	mov	r3, #247, 0	; 0xf7
    8418:	e59f2150 	ldr	r2, [pc, #336]	; 8570 <xfer_start+0x1a4>
    841c:	e59f1150 	ldr	r1, [pc, #336]	; 8574 <xfer_start+0x1a8>
    8420:	e59f0150 	ldr	r0, [pc, #336]	; 8578 <xfer_start+0x1ac>
    8424:	eb0001c1 	bl	8b30 <printk>
    8428:	eb0002c9 	bl	8f54 <clean_reboot>
    842c:	e3a030f7 	mov	r3, #247, 0	; 0xf7
    8430:	e59f2138 	ldr	r2, [pc, #312]	; 8570 <xfer_start+0x1a4>
    8434:	e59f1138 	ldr	r1, [pc, #312]	; 8574 <xfer_start+0x1a8>
    8438:	e59f013c 	ldr	r0, [pc, #316]	; 857c <xfer_start+0x1b0>
    843c:	eb0001bb 	bl	8b30 <printk>
    8440:	eb0002c3 	bl	8f54 <clean_reboot>
    8444:	e59f3120 	ldr	r3, [pc, #288]	; 856c <xfer_start+0x1a0>
    8448:	e5933004 	ldr	r3, [r3, #4]
    844c:	e3130040 	tst	r3, #64, 0	; 0x40
    8450:	0a000025 	beq	84ec <xfer_start+0x120>
    8454:	ebffffce 	bl	8394 <reset_status>
    8458:	e1b033a6 	lsrs	r3, r6, #7
    845c:	1a00002a 	bne	850c <xfer_start+0x140>
    8460:	e1a01006 	mov	r1, r6
    8464:	e59f0114 	ldr	r0, [pc, #276]	; 8580 <xfer_start+0x1b4>
    8468:	ebfffeed 	bl	8024 <PUT32>
    846c:	e1b03825 	lsrs	r3, r5, #16
    8470:	1a00002d 	bne	852c <xfer_start+0x160>
    8474:	e1a01005 	mov	r1, r5
    8478:	e59f0104 	ldr	r0, [pc, #260]	; 8584 <xfer_start+0x1b8>
    847c:	ebfffee8 	bl	8024 <PUT32>
    8480:	e59f50e4 	ldr	r5, [pc, #228]	; 856c <xfer_start+0x1a0>
    8484:	e1a00005 	mov	r0, r5
    8488:	ebffffcb 	bl	83bc <read_c>
    848c:	e38030b0 	orr	r3, r0, #176, 0	; 0xb0
    8490:	e2041001 	and	r1, r4, #1, 0
    8494:	e3c33001 	bic	r3, r3, #1, 0
    8498:	e1811003 	orr	r1, r1, r3
    849c:	e1a00005 	mov	r0, r5
    84a0:	ebfffedf 	bl	8024 <PUT32>
    84a4:	e59f30c0 	ldr	r3, [pc, #192]	; 856c <xfer_start+0x1a0>
    84a8:	e5933004 	ldr	r3, [r3, #4]
    84ac:	e3130001 	tst	r3, #1, 0
    84b0:	1a00002b 	bne	8564 <xfer_start+0x198>
    84b4:	e59f30b0 	ldr	r3, [pc, #176]	; 856c <xfer_start+0x1a0>
    84b8:	e5933004 	ldr	r3, [r3, #4]
    84bc:	e3130c01 	tst	r3, #256	; 0x100
    84c0:	1a000021 	bne	854c <xfer_start+0x180>
    84c4:	e59f30a0 	ldr	r3, [pc, #160]	; 856c <xfer_start+0x1a0>
    84c8:	e5933004 	ldr	r3, [r3, #4]
    84cc:	e3130c02 	tst	r3, #512	; 0x200
    84d0:	0afffff3 	beq	84a4 <xfer_start+0xd8>
    84d4:	e59f30ac 	ldr	r3, [pc, #172]	; 8588 <xfer_start+0x1bc>
    84d8:	e59f2090 	ldr	r2, [pc, #144]	; 8570 <xfer_start+0x1a4>
    84dc:	e59f1090 	ldr	r1, [pc, #144]	; 8574 <xfer_start+0x1a8>
    84e0:	e59f0090 	ldr	r0, [pc, #144]	; 8578 <xfer_start+0x1ac>
    84e4:	eb000191 	bl	8b30 <printk>
    84e8:	eb000299 	bl	8f54 <clean_reboot>
    84ec:	e59f3098 	ldr	r3, [pc, #152]	; 858c <xfer_start+0x1c0>
    84f0:	e58d3000 	str	r3, [sp]
    84f4:	e3a030fa 	mov	r3, #250, 0	; 0xfa
    84f8:	e59f2070 	ldr	r2, [pc, #112]	; 8570 <xfer_start+0x1a4>
    84fc:	e59f1070 	ldr	r1, [pc, #112]	; 8574 <xfer_start+0x1a8>
    8500:	e59f0088 	ldr	r0, [pc, #136]	; 8590 <xfer_start+0x1c4>
    8504:	eb000189 	bl	8b30 <printk>
    8508:	eb000291 	bl	8f54 <clean_reboot>
    850c:	e59f3080 	ldr	r3, [pc, #128]	; 8594 <xfer_start+0x1c8>
    8510:	e58d3000 	str	r3, [sp]
    8514:	e3a030ff 	mov	r3, #255, 0	; 0xff
    8518:	e59f2050 	ldr	r2, [pc, #80]	; 8570 <xfer_start+0x1a4>
    851c:	e59f1050 	ldr	r1, [pc, #80]	; 8574 <xfer_start+0x1a8>
    8520:	e59f0068 	ldr	r0, [pc, #104]	; 8590 <xfer_start+0x1c4>
    8524:	eb000181 	bl	8b30 <printk>
    8528:	eb000289 	bl	8f54 <clean_reboot>
    852c:	e59f3064 	ldr	r3, [pc, #100]	; 8598 <xfer_start+0x1cc>
    8530:	e58d3000 	str	r3, [sp]
    8534:	e59f3060 	ldr	r3, [pc, #96]	; 859c <xfer_start+0x1d0>
    8538:	e59f2030 	ldr	r2, [pc, #48]	; 8570 <xfer_start+0x1a4>
    853c:	e59f1030 	ldr	r1, [pc, #48]	; 8574 <xfer_start+0x1a8>
    8540:	e59f0048 	ldr	r0, [pc, #72]	; 8590 <xfer_start+0x1c4>
    8544:	eb000179 	bl	8b30 <printk>
    8548:	eb000281 	bl	8f54 <clean_reboot>
    854c:	e59f3034 	ldr	r3, [pc, #52]	; 8588 <xfer_start+0x1bc>
    8550:	e59f2018 	ldr	r2, [pc, #24]	; 8570 <xfer_start+0x1a4>
    8554:	e59f1018 	ldr	r1, [pc, #24]	; 8574 <xfer_start+0x1a8>
    8558:	e59f001c 	ldr	r0, [pc, #28]	; 857c <xfer_start+0x1b0>
    855c:	eb000173 	bl	8b30 <printk>
    8560:	eb00027b 	bl	8f54 <clean_reboot>
    8564:	e28dd008 	add	sp, sp, #8, 0
    8568:	e8bd8070 	pop	{r4, r5, r6, pc}
    856c:	20804000 	.word	0x20804000
    8570:	00009984 	.word	0x00009984
    8574:	000097e8 	.word	0x000097e8
    8578:	00009814 	.word	0x00009814
    857c:	000097f0 	.word	0x000097f0
    8580:	2080400c 	.word	0x2080400c
    8584:	20804008 	.word	0x20804008
    8588:	00000112 	.word	0x00000112
    858c:	0000989c 	.word	0x0000989c
    8590:	00009844 	.word	0x00009844
    8594:	000098b4 	.word	0x000098b4
    8598:	000098c8 	.word	0x000098c8
    859c:	00000103 	.word	0x00000103

000085a0 <xfer_start_hack>:
    85a0:	e92d4070 	push	{r4, r5, r6, lr}
    85a4:	e24dd008 	sub	sp, sp, #8, 0
    85a8:	e1a06000 	mov	r6, r0
    85ac:	e1a05001 	mov	r5, r1
    85b0:	e1a04002 	mov	r4, r2
    85b4:	eb0002a1 	bl	9040 <dev_barrier>
    85b8:	e59f3150 	ldr	r3, [pc, #336]	; 8710 <xfer_start_hack+0x170>
    85bc:	e5933004 	ldr	r3, [r3, #4]
    85c0:	e3130001 	tst	r3, #1, 0
    85c4:	0a000013 	beq	8618 <xfer_start_hack+0x78>
    85c8:	e59f3140 	ldr	r3, [pc, #320]	; 8710 <xfer_start_hack+0x170>
    85cc:	e5933004 	ldr	r3, [r3, #4]
    85d0:	e3130c01 	tst	r3, #256	; 0x100
    85d4:	1a000009 	bne	8600 <xfer_start_hack+0x60>
    85d8:	e59f3130 	ldr	r3, [pc, #304]	; 8710 <xfer_start_hack+0x170>
    85dc:	e5933004 	ldr	r3, [r3, #4]
    85e0:	e3130c02 	tst	r3, #512	; 0x200
    85e4:	0afffff3 	beq	85b8 <xfer_start_hack+0x18>
    85e8:	e3a03f52 	mov	r3, #328	; 0x148
    85ec:	e59f2120 	ldr	r2, [pc, #288]	; 8714 <xfer_start_hack+0x174>
    85f0:	e59f1120 	ldr	r1, [pc, #288]	; 8718 <xfer_start_hack+0x178>
    85f4:	e59f0120 	ldr	r0, [pc, #288]	; 871c <xfer_start_hack+0x17c>
    85f8:	eb00014c 	bl	8b30 <printk>
    85fc:	eb000254 	bl	8f54 <clean_reboot>
    8600:	e3a03f52 	mov	r3, #328	; 0x148
    8604:	e59f2108 	ldr	r2, [pc, #264]	; 8714 <xfer_start_hack+0x174>
    8608:	e59f1108 	ldr	r1, [pc, #264]	; 8718 <xfer_start_hack+0x178>
    860c:	e59f010c 	ldr	r0, [pc, #268]	; 8720 <xfer_start_hack+0x180>
    8610:	eb000146 	bl	8b30 <printk>
    8614:	eb00024e 	bl	8f54 <clean_reboot>
    8618:	ebffff5d 	bl	8394 <reset_status>
    861c:	e1b033a6 	lsrs	r3, r6, #7
    8620:	1a000022 	bne	86b0 <xfer_start_hack+0x110>
    8624:	e1a01006 	mov	r1, r6
    8628:	e59f00f4 	ldr	r0, [pc, #244]	; 8724 <xfer_start_hack+0x184>
    862c:	ebfffe7c 	bl	8024 <PUT32>
    8630:	e1b03825 	lsrs	r3, r5, #16
    8634:	1a000025 	bne	86d0 <xfer_start_hack+0x130>
    8638:	e1a01005 	mov	r1, r5
    863c:	e59f00e4 	ldr	r0, [pc, #228]	; 8728 <xfer_start_hack+0x188>
    8640:	ebfffe77 	bl	8024 <PUT32>
    8644:	e59f50c4 	ldr	r5, [pc, #196]	; 8710 <xfer_start_hack+0x170>
    8648:	e1a00005 	mov	r0, r5
    864c:	ebffff5a 	bl	83bc <read_c>
    8650:	e38030b0 	orr	r3, r0, #176, 0	; 0xb0
    8654:	e2041001 	and	r1, r4, #1, 0
    8658:	e3c33001 	bic	r3, r3, #1, 0
    865c:	e1811003 	orr	r1, r1, r3
    8660:	e1a00005 	mov	r0, r5
    8664:	ebfffe6e 	bl	8024 <PUT32>
    8668:	e59f30a0 	ldr	r3, [pc, #160]	; 8710 <xfer_start_hack+0x170>
    866c:	e5933004 	ldr	r3, [r3, #4]
    8670:	e3130001 	tst	r3, #1, 0
    8674:	1a000023 	bne	8708 <xfer_start_hack+0x168>
    8678:	e59f3090 	ldr	r3, [pc, #144]	; 8710 <xfer_start_hack+0x170>
    867c:	e5933004 	ldr	r3, [r3, #4]
    8680:	e3130c01 	tst	r3, #256	; 0x100
    8684:	1a000019 	bne	86f0 <xfer_start_hack+0x150>
    8688:	e59f3080 	ldr	r3, [pc, #128]	; 8710 <xfer_start_hack+0x170>
    868c:	e5933004 	ldr	r3, [r3, #4]
    8690:	e3130c02 	tst	r3, #512	; 0x200
    8694:	0afffff3 	beq	8668 <xfer_start_hack+0xc8>
    8698:	e59f308c 	ldr	r3, [pc, #140]	; 872c <xfer_start_hack+0x18c>
    869c:	e59f2070 	ldr	r2, [pc, #112]	; 8714 <xfer_start_hack+0x174>
    86a0:	e59f1070 	ldr	r1, [pc, #112]	; 8718 <xfer_start_hack+0x178>
    86a4:	e59f0070 	ldr	r0, [pc, #112]	; 871c <xfer_start_hack+0x17c>
    86a8:	eb000120 	bl	8b30 <printk>
    86ac:	eb000228 	bl	8f54 <clean_reboot>
    86b0:	e59f3078 	ldr	r3, [pc, #120]	; 8730 <xfer_start_hack+0x190>
    86b4:	e58d3000 	str	r3, [sp]
    86b8:	e3a03e15 	mov	r3, #336	; 0x150
    86bc:	e59f2050 	ldr	r2, [pc, #80]	; 8714 <xfer_start_hack+0x174>
    86c0:	e59f1050 	ldr	r1, [pc, #80]	; 8718 <xfer_start_hack+0x178>
    86c4:	e59f0068 	ldr	r0, [pc, #104]	; 8734 <xfer_start_hack+0x194>
    86c8:	eb000118 	bl	8b30 <printk>
    86cc:	eb000220 	bl	8f54 <clean_reboot>
    86d0:	e59f3060 	ldr	r3, [pc, #96]	; 8738 <xfer_start_hack+0x198>
    86d4:	e58d3000 	str	r3, [sp]
    86d8:	e3a03f55 	mov	r3, #340	; 0x154
    86dc:	e59f2030 	ldr	r2, [pc, #48]	; 8714 <xfer_start_hack+0x174>
    86e0:	e59f1030 	ldr	r1, [pc, #48]	; 8718 <xfer_start_hack+0x178>
    86e4:	e59f0048 	ldr	r0, [pc, #72]	; 8734 <xfer_start_hack+0x194>
    86e8:	eb000110 	bl	8b30 <printk>
    86ec:	eb000218 	bl	8f54 <clean_reboot>
    86f0:	e59f3034 	ldr	r3, [pc, #52]	; 872c <xfer_start_hack+0x18c>
    86f4:	e59f2018 	ldr	r2, [pc, #24]	; 8714 <xfer_start_hack+0x174>
    86f8:	e59f1018 	ldr	r1, [pc, #24]	; 8718 <xfer_start_hack+0x178>
    86fc:	e59f001c 	ldr	r0, [pc, #28]	; 8720 <xfer_start_hack+0x180>
    8700:	eb00010a 	bl	8b30 <printk>
    8704:	eb000212 	bl	8f54 <clean_reboot>
    8708:	e28dd008 	add	sp, sp, #8, 0
    870c:	e8bd8070 	pop	{r4, r5, r6, pc}
    8710:	20804000 	.word	0x20804000
    8714:	00009990 	.word	0x00009990
    8718:	000097e8 	.word	0x000097e8
    871c:	00009814 	.word	0x00009814
    8720:	000097f0 	.word	0x000097f0
    8724:	2080400c 	.word	0x2080400c
    8728:	20804008 	.word	0x20804008
    872c:	0000015e 	.word	0x0000015e
    8730:	000098b4 	.word	0x000098b4
    8734:	00009844 	.word	0x00009844
    8738:	000098c8 	.word	0x000098c8

0000873c <i2c_write>:
    873c:	e92d4070 	push	{r4, r5, r6, lr}
    8740:	e1a05001 	mov	r5, r1
    8744:	e1a04002 	mov	r4, r2
    8748:	e3a02000 	mov	r2, #0, 0
    874c:	e1a01004 	mov	r1, r4
    8750:	ebffff1d 	bl	83cc <xfer_start>
    8754:	e3a02000 	mov	r2, #0, 0
    8758:	ea000009 	b	8784 <i2c_write+0x48>
    875c:	e3a03f4a 	mov	r3, #296	; 0x128
    8760:	e59f2078 	ldr	r2, [pc, #120]	; 87e0 <i2c_write+0xa4>
    8764:	e59f1078 	ldr	r1, [pc, #120]	; 87e4 <i2c_write+0xa8>
    8768:	e59f0078 	ldr	r0, [pc, #120]	; 87e8 <i2c_write+0xac>
    876c:	eb0000ef 	bl	8b30 <printk>
    8770:	eb0001f7 	bl	8f54 <clean_reboot>
    8774:	e7d51002 	ldrb	r1, [r5, r2]
    8778:	e59f306c 	ldr	r3, [pc, #108]	; 87ec <i2c_write+0xb0>
    877c:	e5831010 	str	r1, [r3, #16]
    8780:	e2822001 	add	r2, r2, #1, 0
    8784:	e1520004 	cmp	r2, r4
    8788:	2a000011 	bcs	87d4 <i2c_write+0x98>
    878c:	e59f3058 	ldr	r3, [pc, #88]	; 87ec <i2c_write+0xb0>
    8790:	e5933004 	ldr	r3, [r3, #4]
    8794:	e3130010 	tst	r3, #16, 0
    8798:	1afffff5 	bne	8774 <i2c_write+0x38>
    879c:	e59f3048 	ldr	r3, [pc, #72]	; 87ec <i2c_write+0xb0>
    87a0:	e5933004 	ldr	r3, [r3, #4]
    87a4:	e3130c01 	tst	r3, #256	; 0x100
    87a8:	1affffeb 	bne	875c <i2c_write+0x20>
    87ac:	e59f3038 	ldr	r3, [pc, #56]	; 87ec <i2c_write+0xb0>
    87b0:	e5933004 	ldr	r3, [r3, #4]
    87b4:	e3130c02 	tst	r3, #512	; 0x200
    87b8:	0afffff3 	beq	878c <i2c_write+0x50>
    87bc:	e3a03f4a 	mov	r3, #296	; 0x128
    87c0:	e59f2018 	ldr	r2, [pc, #24]	; 87e0 <i2c_write+0xa4>
    87c4:	e59f1018 	ldr	r1, [pc, #24]	; 87e4 <i2c_write+0xa8>
    87c8:	e59f0020 	ldr	r0, [pc, #32]	; 87f0 <i2c_write+0xb4>
    87cc:	eb0000d7 	bl	8b30 <printk>
    87d0:	eb0001df 	bl	8f54 <clean_reboot>
    87d4:	ebfffeab 	bl	8288 <xfer_end>
    87d8:	e3a00001 	mov	r0, #1, 0
    87dc:	e8bd8070 	pop	{r4, r5, r6, pc}
    87e0:	000099a0 	.word	0x000099a0
    87e4:	000097e8 	.word	0x000097e8
    87e8:	000097f0 	.word	0x000097f0
    87ec:	20804000 	.word	0x20804000
    87f0:	00009814 	.word	0x00009814

000087f4 <i2c_read>:
    87f4:	e92d4070 	push	{r4, r5, r6, lr}
    87f8:	e1a05001 	mov	r5, r1
    87fc:	e1a04002 	mov	r4, r2
    8800:	e3a02001 	mov	r2, #1, 0
    8804:	e1a01004 	mov	r1, r4
    8808:	ebfffeef 	bl	83cc <xfer_start>
    880c:	e3a02000 	mov	r2, #0, 0
    8810:	ea000009 	b	883c <i2c_read+0x48>
    8814:	e59f307c 	ldr	r3, [pc, #124]	; 8898 <i2c_read+0xa4>
    8818:	e59f207c 	ldr	r2, [pc, #124]	; 889c <i2c_read+0xa8>
    881c:	e59f107c 	ldr	r1, [pc, #124]	; 88a0 <i2c_read+0xac>
    8820:	e59f007c 	ldr	r0, [pc, #124]	; 88a4 <i2c_read+0xb0>
    8824:	eb0000c1 	bl	8b30 <printk>
    8828:	eb0001c9 	bl	8f54 <clean_reboot>
    882c:	e59f3074 	ldr	r3, [pc, #116]	; 88a8 <i2c_read+0xb4>
    8830:	e5933010 	ldr	r3, [r3, #16]
    8834:	e7c53002 	strb	r3, [r5, r2]
    8838:	e2822001 	add	r2, r2, #1, 0
    883c:	e1520004 	cmp	r2, r4
    8840:	2a000011 	bcs	888c <i2c_read+0x98>
    8844:	e59f305c 	ldr	r3, [pc, #92]	; 88a8 <i2c_read+0xb4>
    8848:	e5933004 	ldr	r3, [r3, #4]
    884c:	e3130020 	tst	r3, #32, 0
    8850:	1afffff5 	bne	882c <i2c_read+0x38>
    8854:	e59f304c 	ldr	r3, [pc, #76]	; 88a8 <i2c_read+0xb4>
    8858:	e5933004 	ldr	r3, [r3, #4]
    885c:	e3130c01 	tst	r3, #256	; 0x100
    8860:	1affffeb 	bne	8814 <i2c_read+0x20>
    8864:	e59f303c 	ldr	r3, [pc, #60]	; 88a8 <i2c_read+0xb4>
    8868:	e5933004 	ldr	r3, [r3, #4]
    886c:	e3130c02 	tst	r3, #512	; 0x200
    8870:	0afffff3 	beq	8844 <i2c_read+0x50>
    8874:	e59f301c 	ldr	r3, [pc, #28]	; 8898 <i2c_read+0xa4>
    8878:	e59f201c 	ldr	r2, [pc, #28]	; 889c <i2c_read+0xa8>
    887c:	e59f101c 	ldr	r1, [pc, #28]	; 88a0 <i2c_read+0xac>
    8880:	e59f0024 	ldr	r0, [pc, #36]	; 88ac <i2c_read+0xb8>
    8884:	eb0000a9 	bl	8b30 <printk>
    8888:	eb0001b1 	bl	8f54 <clean_reboot>
    888c:	ebfffe7d 	bl	8288 <xfer_end>
    8890:	e3a00001 	mov	r0, #1, 0
    8894:	e8bd8070 	pop	{r4, r5, r6, pc}
    8898:	0000013a 	.word	0x0000013a
    889c:	000099ac 	.word	0x000099ac
    88a0:	000097e8 	.word	0x000097e8
    88a4:	000097f0 	.word	0x000097f0
    88a8:	20804000 	.word	0x20804000
    88ac:	00009814 	.word	0x00009814

000088b0 <i2c_discover_addr>:
    88b0:	e92d4070 	push	{r4, r5, r6, lr}
    88b4:	e1a05000 	mov	r5, r0
    88b8:	e1a06001 	mov	r6, r1
    88bc:	e3a04000 	mov	r4, #0, 0
    88c0:	e35400ff 	cmp	r4, #255, 0	; 0xff
    88c4:	8a00004e 	bhi	8a04 <i2c_discover_addr+0x154>
    88c8:	e3a02001 	mov	r2, #1, 0
    88cc:	e1a01002 	mov	r1, r2
    88d0:	e1a00004 	mov	r0, r4
    88d4:	ebffff31 	bl	85a0 <xfer_start_hack>
    88d8:	e59f3154 	ldr	r3, [pc, #340]	; 8a34 <i2c_discover_addr+0x184>
    88dc:	e5933004 	ldr	r3, [r3, #4]
    88e0:	e3130010 	tst	r3, #16, 0
    88e4:	1a000013 	bne	8938 <i2c_discover_addr+0x88>
    88e8:	e59f3144 	ldr	r3, [pc, #324]	; 8a34 <i2c_discover_addr+0x184>
    88ec:	e5933004 	ldr	r3, [r3, #4]
    88f0:	e3130c01 	tst	r3, #256	; 0x100
    88f4:	1a000009 	bne	8920 <i2c_discover_addr+0x70>
    88f8:	e59f3134 	ldr	r3, [pc, #308]	; 8a34 <i2c_discover_addr+0x184>
    88fc:	e5933004 	ldr	r3, [r3, #4]
    8900:	e3130c02 	tst	r3, #512	; 0x200
    8904:	0afffff3 	beq	88d8 <i2c_discover_addr+0x28>
    8908:	e59f3128 	ldr	r3, [pc, #296]	; 8a38 <i2c_discover_addr+0x188>
    890c:	e59f2128 	ldr	r2, [pc, #296]	; 8a3c <i2c_discover_addr+0x18c>
    8910:	e59f1128 	ldr	r1, [pc, #296]	; 8a40 <i2c_discover_addr+0x190>
    8914:	e59f0128 	ldr	r0, [pc, #296]	; 8a44 <i2c_discover_addr+0x194>
    8918:	eb000084 	bl	8b30 <printk>
    891c:	eb00018c 	bl	8f54 <clean_reboot>
    8920:	e59f3110 	ldr	r3, [pc, #272]	; 8a38 <i2c_discover_addr+0x188>
    8924:	e59f2110 	ldr	r2, [pc, #272]	; 8a3c <i2c_discover_addr+0x18c>
    8928:	e59f1110 	ldr	r1, [pc, #272]	; 8a40 <i2c_discover_addr+0x190>
    892c:	e59f0114 	ldr	r0, [pc, #276]	; 8a48 <i2c_discover_addr+0x198>
    8930:	eb00007e 	bl	8b30 <printk>
    8934:	eb000186 	bl	8f54 <clean_reboot>
    8938:	e59f30f4 	ldr	r3, [pc, #244]	; 8a34 <i2c_discover_addr+0x184>
    893c:	e5835010 	str	r5, [r3, #16]
    8940:	e59f30ec 	ldr	r3, [pc, #236]	; 8a34 <i2c_discover_addr+0x184>
    8944:	e5933004 	ldr	r3, [r3, #4]
    8948:	e3130010 	tst	r3, #16, 0
    894c:	1a000013 	bne	89a0 <i2c_discover_addr+0xf0>
    8950:	e59f30dc 	ldr	r3, [pc, #220]	; 8a34 <i2c_discover_addr+0x184>
    8954:	e5933004 	ldr	r3, [r3, #4]
    8958:	e3130c01 	tst	r3, #256	; 0x100
    895c:	1a000009 	bne	8988 <i2c_discover_addr+0xd8>
    8960:	e59f30cc 	ldr	r3, [pc, #204]	; 8a34 <i2c_discover_addr+0x184>
    8964:	e5933004 	ldr	r3, [r3, #4]
    8968:	e3130c02 	tst	r3, #512	; 0x200
    896c:	0afffff3 	beq	8940 <i2c_discover_addr+0x90>
    8970:	e59f30d4 	ldr	r3, [pc, #212]	; 8a4c <i2c_discover_addr+0x19c>
    8974:	e59f20c0 	ldr	r2, [pc, #192]	; 8a3c <i2c_discover_addr+0x18c>
    8978:	e59f10c0 	ldr	r1, [pc, #192]	; 8a40 <i2c_discover_addr+0x190>
    897c:	e59f00c0 	ldr	r0, [pc, #192]	; 8a44 <i2c_discover_addr+0x194>
    8980:	eb00006a 	bl	8b30 <printk>
    8984:	eb000172 	bl	8f54 <clean_reboot>
    8988:	e59f30bc 	ldr	r3, [pc, #188]	; 8a4c <i2c_discover_addr+0x19c>
    898c:	e59f20a8 	ldr	r2, [pc, #168]	; 8a3c <i2c_discover_addr+0x18c>
    8990:	e59f10a8 	ldr	r1, [pc, #168]	; 8a40 <i2c_discover_addr+0x190>
    8994:	e59f00ac 	ldr	r0, [pc, #172]	; 8a48 <i2c_discover_addr+0x198>
    8998:	eb000064 	bl	8b30 <printk>
    899c:	eb00016c 	bl	8f54 <clean_reboot>
    89a0:	e59f308c 	ldr	r3, [pc, #140]	; 8a34 <i2c_discover_addr+0x184>
    89a4:	e5836010 	str	r6, [r3, #16]
    89a8:	e59f3084 	ldr	r3, [pc, #132]	; 8a34 <i2c_discover_addr+0x184>
    89ac:	e5933004 	ldr	r3, [r3, #4]
    89b0:	e3130002 	tst	r3, #2, 0
    89b4:	1a000018 	bne	8a1c <i2c_discover_addr+0x16c>
    89b8:	e59f3074 	ldr	r3, [pc, #116]	; 8a34 <i2c_discover_addr+0x184>
    89bc:	e5933004 	ldr	r3, [r3, #4]
    89c0:	e3130c01 	tst	r3, #256	; 0x100
    89c4:	1a000009 	bne	89f0 <i2c_discover_addr+0x140>
    89c8:	e59f3064 	ldr	r3, [pc, #100]	; 8a34 <i2c_discover_addr+0x184>
    89cc:	e5933004 	ldr	r3, [r3, #4]
    89d0:	e3130c02 	tst	r3, #512	; 0x200
    89d4:	0afffff3 	beq	89a8 <i2c_discover_addr+0xf8>
    89d8:	e59f3070 	ldr	r3, [pc, #112]	; 8a50 <i2c_discover_addr+0x1a0>
    89dc:	e59f2058 	ldr	r2, [pc, #88]	; 8a3c <i2c_discover_addr+0x18c>
    89e0:	e59f1058 	ldr	r1, [pc, #88]	; 8a40 <i2c_discover_addr+0x190>
    89e4:	e59f0068 	ldr	r0, [pc, #104]	; 8a54 <i2c_discover_addr+0x1a4>
    89e8:	eb000050 	bl	8b30 <printk>
    89ec:	eb000158 	bl	8f54 <clean_reboot>
    89f0:	e1a01004 	mov	r1, r4
    89f4:	e59f005c 	ldr	r0, [pc, #92]	; 8a58 <i2c_discover_addr+0x1a8>
    89f8:	eb00004c 	bl	8b30 <printk>
    89fc:	e2844001 	add	r4, r4, #1, 0
    8a00:	eaffffae 	b	88c0 <i2c_discover_addr+0x10>
    8a04:	e59f3050 	ldr	r3, [pc, #80]	; 8a5c <i2c_discover_addr+0x1ac>
    8a08:	e59f202c 	ldr	r2, [pc, #44]	; 8a3c <i2c_discover_addr+0x18c>
    8a0c:	e59f102c 	ldr	r1, [pc, #44]	; 8a40 <i2c_discover_addr+0x190>
    8a10:	e59f0048 	ldr	r0, [pc, #72]	; 8a60 <i2c_discover_addr+0x1b0>
    8a14:	eb000045 	bl	8b30 <printk>
    8a18:	eb00014d 	bl	8f54 <clean_reboot>
    8a1c:	e1a01004 	mov	r1, r4
    8a20:	e59f003c 	ldr	r0, [pc, #60]	; 8a64 <i2c_discover_addr+0x1b4>
    8a24:	eb000041 	bl	8b30 <printk>
    8a28:	ebfffe16 	bl	8288 <xfer_end>
    8a2c:	e6ef0074 	uxtb	r0, r4
    8a30:	e8bd8070 	pop	{r4, r5, r6, pc}
    8a34:	20804000 	.word	0x20804000
    8a38:	00000167 	.word	0x00000167
    8a3c:	000099b8 	.word	0x000099b8
    8a40:	000097e8 	.word	0x000097e8
    8a44:	00009814 	.word	0x00009814
    8a48:	000097f0 	.word	0x000097f0
    8a4c:	00000169 	.word	0x00000169
    8a50:	00000177 	.word	0x00000177
    8a54:	00009928 	.word	0x00009928
    8a58:	0000990c 	.word	0x0000990c
    8a5c:	0000017a 	.word	0x0000017a
    8a60:	00009958 	.word	0x00009958
    8a64:	000098e0 	.word	0x000098e0

00008a68 <i2c_is_initialized>:
    8a68:	e59f3004 	ldr	r3, [pc, #4]	; 8a74 <i2c_is_initialized+0xc>
    8a6c:	e5930000 	ldr	r0, [r3]
    8a70:	e12fff1e 	bx	lr
    8a74:	00009c40 	.word	0x00009c40

00008a78 <i2c_init>:
    8a78:	e92d4010 	push	{r4, lr}
    8a7c:	e24dd008 	sub	sp, sp, #8, 0
    8a80:	eb00016e 	bl	9040 <dev_barrier>
    8a84:	e3a01004 	mov	r1, #4, 0
    8a88:	e3a00002 	mov	r0, #2, 0
    8a8c:	eb000215 	bl	92e8 <gpio_set_function>
    8a90:	e3a01004 	mov	r1, #4, 0
    8a94:	e3a00003 	mov	r0, #3, 0
    8a98:	eb000212 	bl	92e8 <gpio_set_function>
    8a9c:	eb000167 	bl	9040 <dev_barrier>
    8aa0:	e59f4054 	ldr	r4, [pc, #84]	; 8afc <i2c_init+0x84>
    8aa4:	e3a01902 	mov	r1, #32768	; 0x8000
    8aa8:	e1a00004 	mov	r0, r4
    8aac:	ebfffd5c 	bl	8024 <PUT32>
    8ab0:	eb000162 	bl	9040 <dev_barrier>
    8ab4:	ebfffe36 	bl	8394 <reset_status>
    8ab8:	eb000160 	bl	9040 <dev_barrier>
    8abc:	e5943004 	ldr	r3, [r4, #4]
    8ac0:	e3130001 	tst	r3, #1, 0
    8ac4:	1a000004 	bne	8adc <i2c_init+0x64>
    8ac8:	e59f3030 	ldr	r3, [pc, #48]	; 8b00 <i2c_init+0x88>
    8acc:	e3a02001 	mov	r2, #1, 0
    8ad0:	e5832000 	str	r2, [r3]
    8ad4:	e28dd008 	add	sp, sp, #8, 0
    8ad8:	e8bd8010 	pop	{r4, pc}
    8adc:	e59f3020 	ldr	r3, [pc, #32]	; 8b04 <i2c_init+0x8c>
    8ae0:	e58d3000 	str	r3, [sp]
    8ae4:	e59f301c 	ldr	r3, [pc, #28]	; 8b08 <i2c_init+0x90>
    8ae8:	e59f201c 	ldr	r2, [pc, #28]	; 8b0c <i2c_init+0x94>
    8aec:	e59f101c 	ldr	r1, [pc, #28]	; 8b10 <i2c_init+0x98>
    8af0:	e59f001c 	ldr	r0, [pc, #28]	; 8b14 <i2c_init+0x9c>
    8af4:	eb00000d 	bl	8b30 <printk>
    8af8:	eb000115 	bl	8f54 <clean_reboot>
    8afc:	20804000 	.word	0x20804000
    8b00:	00009c40 	.word	0x00009c40
    8b04:	00009874 	.word	0x00009874
    8b08:	000001aa 	.word	0x000001aa
    8b0c:	000099cc 	.word	0x000099cc
    8b10:	000097e8 	.word	0x000097e8
    8b14:	00009844 	.word	0x00009844

00008b18 <i2c_init_once>:
    8b18:	e92d4010 	push	{r4, lr}
    8b1c:	ebffffd1 	bl	8a68 <i2c_is_initialized>
    8b20:	e3500000 	cmp	r0, #0, 0
    8b24:	18bd8010 	popne	{r4, pc}
    8b28:	ebffffd2 	bl	8a78 <i2c_init>
    8b2c:	e8bd8010 	pop	{r4, pc}

00008b30 <printk>:
    8b30:	e92d000f 	push	{r0, r1, r2, r3}
    8b34:	e52de004 	push	{lr}		; (str lr, [sp, #-4]!)
    8b38:	e24dd00c 	sub	sp, sp, #12, 0
    8b3c:	e28d1014 	add	r1, sp, #20, 0
    8b40:	e58d1004 	str	r1, [sp, #4]
    8b44:	e59d0010 	ldr	r0, [sp, #16]
    8b48:	eb000047 	bl	8c6c <vprintk>
    8b4c:	e28dd00c 	add	sp, sp, #12, 0
    8b50:	e49de004 	pop	{lr}		; (ldr lr, [sp], #4)
    8b54:	e28dd010 	add	sp, sp, #16, 0
    8b58:	e12fff1e 	bx	lr

00008b5c <emit_val>:
    8b5c:	e92d4010 	push	{r4, lr}
    8b60:	e24dd030 	sub	sp, sp, #48, 0	; 0x30
    8b64:	e350000a 	cmp	r0, #10, 0
    8b68:	0a000014 	beq	8bc0 <emit_val+0x64>
    8b6c:	e3500010 	cmp	r0, #16, 0
    8b70:	0a000022 	beq	8c00 <emit_val+0xa4>
    8b74:	e3500002 	cmp	r0, #2, 0
    8b78:	0a000006 	beq	8b98 <emit_val+0x3c>
    8b7c:	e58d0000 	str	r0, [sp]
    8b80:	e3a0301b 	mov	r3, #27, 0
    8b84:	e59f20c0 	ldr	r2, [pc, #192]	; 8c4c <emit_val+0xf0>
    8b88:	e59f10c0 	ldr	r1, [pc, #192]	; 8c50 <emit_val+0xf4>
    8b8c:	e59f00c0 	ldr	r0, [pc, #192]	; 8c54 <emit_val+0xf8>
    8b90:	ebffffe6 	bl	8b30 <printk>
    8b94:	eb0000ee 	bl	8f54 <clean_reboot>
    8b98:	e28d400c 	add	r4, sp, #12, 0
    8b9c:	e2012001 	and	r2, r1, #1, 0
    8ba0:	e59f00b0 	ldr	r0, [pc, #176]	; 8c58 <emit_val+0xfc>
    8ba4:	e7d02002 	ldrb	r2, [r0, r2]
    8ba8:	e5c42000 	strb	r2, [r4]
    8bac:	e2844001 	add	r4, r4, #1, 0
    8bb0:	e3510001 	cmp	r1, #1, 0
    8bb4:	e1a010a1 	lsr	r1, r1, #1
    8bb8:	8afffff7 	bhi	8b9c <emit_val+0x40>
    8bbc:	ea00001d 	b	8c38 <emit_val+0xdc>
    8bc0:	e28d400c 	add	r4, sp, #12, 0
    8bc4:	e59f3090 	ldr	r3, [pc, #144]	; 8c5c <emit_val+0x100>
    8bc8:	e0832193 	umull	r2, r3, r3, r1
    8bcc:	e1a031a3 	lsr	r3, r3, #3
    8bd0:	e1a00003 	mov	r0, r3
    8bd4:	e0833103 	add	r3, r3, r3, lsl #2
    8bd8:	e0413083 	sub	r3, r1, r3, lsl #1
    8bdc:	e59fc07c 	ldr	ip, [pc, #124]	; 8c60 <emit_val+0x104>
    8be0:	e7dcc003 	ldrb	ip, [ip, r3]
    8be4:	e5c4c000 	strb	ip, [r4]
    8be8:	e2844001 	add	r4, r4, #1, 0
    8bec:	e1a03001 	mov	r3, r1
    8bf0:	e1a01000 	mov	r1, r0
    8bf4:	e3530009 	cmp	r3, #9, 0
    8bf8:	8afffff1 	bhi	8bc4 <emit_val+0x68>
    8bfc:	ea00000d 	b	8c38 <emit_val+0xdc>
    8c00:	e28d400c 	add	r4, sp, #12, 0
    8c04:	e201200f 	and	r2, r1, #15, 0
    8c08:	e59f0054 	ldr	r0, [pc, #84]	; 8c64 <emit_val+0x108>
    8c0c:	e7d02002 	ldrb	r2, [r0, r2]
    8c10:	e5c42000 	strb	r2, [r4]
    8c14:	e2844001 	add	r4, r4, #1, 0
    8c18:	e351000f 	cmp	r1, #15, 0
    8c1c:	e1a01221 	lsr	r1, r1, #4
    8c20:	8afffff7 	bhi	8c04 <emit_val+0xa8>
    8c24:	ea000003 	b	8c38 <emit_val+0xdc>
    8c28:	e59f3038 	ldr	r3, [pc, #56]	; 8c68 <emit_val+0x10c>
    8c2c:	e5933000 	ldr	r3, [r3]
    8c30:	e5740001 	ldrb	r0, [r4, #-1]!
    8c34:	e12fff33 	blx	r3
    8c38:	e28d300c 	add	r3, sp, #12, 0
    8c3c:	e1540003 	cmp	r4, r3
    8c40:	8afffff8 	bhi	8c28 <emit_val+0xcc>
    8c44:	e28dd030 	add	sp, sp, #48, 0	; 0x30
    8c48:	e8bd8010 	pop	{r4, pc}
    8c4c:	00009a90 	.word	0x00009a90
    8c50:	000099d8 	.word	0x000099d8
    8c54:	000099e8 	.word	0x000099e8
    8c58:	00009a0c 	.word	0x00009a0c
    8c5c:	cccccccd 	.word	0xcccccccd
    8c60:	00009a10 	.word	0x00009a10
    8c64:	00009a1c 	.word	0x00009a1c
    8c68:	00009c3c 	.word	0x00009c3c

00008c6c <vprintk>:
    8c6c:	e92d4030 	push	{r4, r5, lr}
    8c70:	e24dd014 	sub	sp, sp, #20, 0
    8c74:	e1a04000 	mov	r4, r0
    8c78:	e58d100c 	str	r1, [sp, #12]
    8c7c:	ea000003 	b	8c90 <vprintk+0x24>
    8c80:	e59f3288 	ldr	r3, [pc, #648]	; 8f10 <vprintk+0x2a4>
    8c84:	e5933000 	ldr	r3, [r3]
    8c88:	e12fff33 	blx	r3
    8c8c:	e2844001 	add	r4, r4, #1, 0
    8c90:	e5d40000 	ldrb	r0, [r4]
    8c94:	e3500000 	cmp	r0, #0, 0
    8c98:	0a00009a 	beq	8f08 <vprintk+0x29c>
    8c9c:	e3500025 	cmp	r0, #37, 0	; 0x25
    8ca0:	1afffff6 	bne	8c80 <vprintk+0x14>
    8ca4:	e2845001 	add	r5, r4, #1, 0
    8ca8:	e5d42001 	ldrb	r2, [r4, #1]
    8cac:	e2423062 	sub	r3, r2, #98, 0	; 0x62
    8cb0:	e3530016 	cmp	r3, #22, 0
    8cb4:	979ff103 	ldrls	pc, [pc, r3, lsl #2]
    8cb8:	ea00008b 	b	8eec <vprintk+0x280>
    8cbc:	00008d18 	.word	0x00008d18
    8cc0:	00008d58 	.word	0x00008d58
    8cc4:	00008e70 	.word	0x00008e70
    8cc8:	00008eec 	.word	0x00008eec
    8ccc:	00008eec 	.word	0x00008eec
    8cd0:	00008eec 	.word	0x00008eec
    8cd4:	00008eec 	.word	0x00008eec
    8cd8:	00008eec 	.word	0x00008eec
    8cdc:	00008eec 	.word	0x00008eec
    8ce0:	00008eec 	.word	0x00008eec
    8ce4:	00008d7c 	.word	0x00008d7c
    8ce8:	00008eec 	.word	0x00008eec
    8cec:	00008eec 	.word	0x00008eec
    8cf0:	00008eec 	.word	0x00008eec
    8cf4:	00008e34 	.word	0x00008e34
    8cf8:	00008eec 	.word	0x00008eec
    8cfc:	00008eec 	.word	0x00008eec
    8d00:	00008eb4 	.word	0x00008eb4
    8d04:	00008eec 	.word	0x00008eec
    8d08:	00008d38 	.word	0x00008d38
    8d0c:	00008eec 	.word	0x00008eec
    8d10:	00008eec 	.word	0x00008eec
    8d14:	00008e34 	.word	0x00008e34
    8d18:	e59d300c 	ldr	r3, [sp, #12]
    8d1c:	e2832004 	add	r2, r3, #4, 0
    8d20:	e58d200c 	str	r2, [sp, #12]
    8d24:	e5931000 	ldr	r1, [r3]
    8d28:	e3a00002 	mov	r0, #2, 0
    8d2c:	ebffff8a 	bl	8b5c <emit_val>
    8d30:	e1a04005 	mov	r4, r5
    8d34:	eaffffd4 	b	8c8c <vprintk+0x20>
    8d38:	e59d300c 	ldr	r3, [sp, #12]
    8d3c:	e2832004 	add	r2, r3, #4, 0
    8d40:	e58d200c 	str	r2, [sp, #12]
    8d44:	e5931000 	ldr	r1, [r3]
    8d48:	e3a0000a 	mov	r0, #10, 0
    8d4c:	ebffff82 	bl	8b5c <emit_val>
    8d50:	e1a04005 	mov	r4, r5
    8d54:	eaffffcc 	b	8c8c <vprintk+0x20>
    8d58:	e59f31b0 	ldr	r3, [pc, #432]	; 8f10 <vprintk+0x2a4>
    8d5c:	e5932000 	ldr	r2, [r3]
    8d60:	e59d300c 	ldr	r3, [sp, #12]
    8d64:	e2831004 	add	r1, r3, #4, 0
    8d68:	e58d100c 	str	r1, [sp, #12]
    8d6c:	e5930000 	ldr	r0, [r3]
    8d70:	e12fff32 	blx	r2
    8d74:	e1a04005 	mov	r4, r5
    8d78:	eaffffc3 	b	8c8c <vprintk+0x20>
    8d7c:	e2842002 	add	r2, r4, #2, 0
    8d80:	e5d43002 	ldrb	r3, [r4, #2]
    8d84:	e353006c 	cmp	r3, #108, 0	; 0x6c
    8d88:	1a000018 	bne	8df0 <vprintk+0x184>
    8d8c:	e2845003 	add	r5, r4, #3, 0
    8d90:	e5d43003 	ldrb	r3, [r4, #3]
    8d94:	e3530078 	cmp	r3, #120, 0	; 0x78
    8d98:	1a00001b 	bne	8e0c <vprintk+0x1a0>
    8d9c:	e59f416c 	ldr	r4, [pc, #364]	; 8f10 <vprintk+0x2a4>
    8da0:	e5943000 	ldr	r3, [r4]
    8da4:	e3a00030 	mov	r0, #48, 0	; 0x30
    8da8:	e12fff33 	blx	r3
    8dac:	e5943000 	ldr	r3, [r4]
    8db0:	e3a00078 	mov	r0, #120, 0	; 0x78
    8db4:	e12fff33 	blx	r3
    8db8:	e59d300c 	ldr	r3, [sp, #12]
    8dbc:	e2833007 	add	r3, r3, #7, 0
    8dc0:	e3c33007 	bic	r3, r3, #7, 0
    8dc4:	e2832008 	add	r2, r3, #8, 0
    8dc8:	e58d200c 	str	r2, [sp, #12]
    8dcc:	e5934000 	ldr	r4, [r3]
    8dd0:	e5931004 	ldr	r1, [r3, #4]
    8dd4:	e3510000 	cmp	r1, #0, 0
    8dd8:	1a000012 	bne	8e28 <vprintk+0x1bc>
    8ddc:	e1a01004 	mov	r1, r4
    8de0:	e3a00010 	mov	r0, #16, 0
    8de4:	ebffff5c 	bl	8b5c <emit_val>
    8de8:	e1a04005 	mov	r4, r5
    8dec:	eaffffa6 	b	8c8c <vprintk+0x20>
    8df0:	e58d2000 	str	r2, [sp]
    8df4:	e3a0303b 	mov	r3, #59, 0	; 0x3b
    8df8:	e59f2114 	ldr	r2, [pc, #276]	; 8f14 <vprintk+0x2a8>
    8dfc:	e59f1114 	ldr	r1, [pc, #276]	; 8f18 <vprintk+0x2ac>
    8e00:	e59f0114 	ldr	r0, [pc, #276]	; 8f1c <vprintk+0x2b0>
    8e04:	ebffff49 	bl	8b30 <printk>
    8e08:	eb000051 	bl	8f54 <clean_reboot>
    8e0c:	e58d5000 	str	r5, [sp]
    8e10:	e3a0303e 	mov	r3, #62, 0	; 0x3e
    8e14:	e59f20f8 	ldr	r2, [pc, #248]	; 8f14 <vprintk+0x2a8>
    8e18:	e59f10f8 	ldr	r1, [pc, #248]	; 8f18 <vprintk+0x2ac>
    8e1c:	e59f00f8 	ldr	r0, [pc, #248]	; 8f1c <vprintk+0x2b0>
    8e20:	ebffff42 	bl	8b30 <printk>
    8e24:	eb00004a 	bl	8f54 <clean_reboot>
    8e28:	e3a00010 	mov	r0, #16, 0
    8e2c:	ebffff4a 	bl	8b5c <emit_val>
    8e30:	eaffffe9 	b	8ddc <vprintk+0x170>
    8e34:	e59f40d4 	ldr	r4, [pc, #212]	; 8f10 <vprintk+0x2a4>
    8e38:	e5943000 	ldr	r3, [r4]
    8e3c:	e3a00030 	mov	r0, #48, 0	; 0x30
    8e40:	e12fff33 	blx	r3
    8e44:	e5943000 	ldr	r3, [r4]
    8e48:	e3a00078 	mov	r0, #120, 0	; 0x78
    8e4c:	e12fff33 	blx	r3
    8e50:	e59d300c 	ldr	r3, [sp, #12]
    8e54:	e2832004 	add	r2, r3, #4, 0
    8e58:	e58d200c 	str	r2, [sp, #12]
    8e5c:	e5931000 	ldr	r1, [r3]
    8e60:	e3a00010 	mov	r0, #16, 0
    8e64:	ebffff3c 	bl	8b5c <emit_val>
    8e68:	e1a04005 	mov	r4, r5
    8e6c:	eaffff86 	b	8c8c <vprintk+0x20>
    8e70:	e59d300c 	ldr	r3, [sp, #12]
    8e74:	e2832004 	add	r2, r3, #4, 0
    8e78:	e58d200c 	str	r2, [sp, #12]
    8e7c:	e5934000 	ldr	r4, [r3]
    8e80:	e3540000 	cmp	r4, #0, 0
    8e84:	ba000004 	blt	8e9c <vprintk+0x230>
    8e88:	e1a01004 	mov	r1, r4
    8e8c:	e3a0000a 	mov	r0, #10, 0
    8e90:	ebffff31 	bl	8b5c <emit_val>
    8e94:	e1a04005 	mov	r4, r5
    8e98:	eaffff7b 	b	8c8c <vprintk+0x20>
    8e9c:	e59f306c 	ldr	r3, [pc, #108]	; 8f10 <vprintk+0x2a4>
    8ea0:	e5933000 	ldr	r3, [r3]
    8ea4:	e3a0002d 	mov	r0, #45, 0	; 0x2d
    8ea8:	e12fff33 	blx	r3
    8eac:	e2644000 	rsb	r4, r4, #0, 0
    8eb0:	eafffff4 	b	8e88 <vprintk+0x21c>
    8eb4:	e59d300c 	ldr	r3, [sp, #12]
    8eb8:	e2832004 	add	r2, r3, #4, 0
    8ebc:	e58d200c 	str	r2, [sp, #12]
    8ec0:	e5934000 	ldr	r4, [r3]
    8ec4:	e5d40000 	ldrb	r0, [r4]
    8ec8:	e3500000 	cmp	r0, #0, 0
    8ecc:	0a000004 	beq	8ee4 <vprintk+0x278>
    8ed0:	e59f3038 	ldr	r3, [pc, #56]	; 8f10 <vprintk+0x2a4>
    8ed4:	e5933000 	ldr	r3, [r3]
    8ed8:	e12fff33 	blx	r3
    8edc:	e2844001 	add	r4, r4, #1, 0
    8ee0:	eafffff7 	b	8ec4 <vprintk+0x258>
    8ee4:	e1a04005 	mov	r4, r5
    8ee8:	eaffff67 	b	8c8c <vprintk+0x20>
    8eec:	e58d2000 	str	r2, [sp]
    8ef0:	e3a03062 	mov	r3, #98, 0	; 0x62
    8ef4:	e59f2018 	ldr	r2, [pc, #24]	; 8f14 <vprintk+0x2a8>
    8ef8:	e59f1018 	ldr	r1, [pc, #24]	; 8f18 <vprintk+0x2ac>
    8efc:	e59f001c 	ldr	r0, [pc, #28]	; 8f20 <vprintk+0x2b4>
    8f00:	ebffff0a 	bl	8b30 <printk>
    8f04:	eb000012 	bl	8f54 <clean_reboot>
    8f08:	e28dd014 	add	sp, sp, #20, 0
    8f0c:	e8bd8030 	pop	{r4, r5, pc}
    8f10:	00009c3c 	.word	0x00009c3c
    8f14:	00009a9c 	.word	0x00009a9c
    8f18:	000099d8 	.word	0x000099d8
    8f1c:	00009a30 	.word	0x00009a30
    8f20:	00009a68 	.word	0x00009a68

00008f24 <default_putchar>:
    8f24:	e92d4010 	push	{r4, lr}
    8f28:	e1a04000 	mov	r4, r0
    8f2c:	e6ef0070 	uxtb	r0, r0
    8f30:	eb0000b3 	bl	9204 <uart_put8>
    8f34:	e1a00004 	mov	r0, r4
    8f38:	e8bd8010 	pop	{r4, pc}

00008f3c <rpi_putchar_set>:
    8f3c:	e59f300c 	ldr	r3, [pc, #12]	; 8f50 <rpi_putchar_set+0x14>
    8f40:	e5932000 	ldr	r2, [r3]
    8f44:	e5830000 	str	r0, [r3]
    8f48:	e1a00002 	mov	r0, r2
    8f4c:	e12fff1e 	bx	lr
    8f50:	00009c3c 	.word	0x00009c3c

00008f54 <clean_reboot>:
    8f54:	e92d4010 	push	{r4, lr}
    8f58:	e59f0010 	ldr	r0, [pc, #16]	; 8f70 <clean_reboot+0x1c>
    8f5c:	eb0001c5 	bl	9678 <putk>
    8f60:	eb0000d0 	bl	92a8 <uart_flush_tx>
    8f64:	e3a0000a 	mov	r0, #10, 0
    8f68:	eb00005d 	bl	90e4 <delay_ms>
    8f6c:	eb000039 	bl	9058 <rpi_reboot>
    8f70:	00009aa4 	.word	0x00009aa4

00008f74 <program_end>:
    8f74:	e59f0000 	ldr	r0, [pc]	; 8f7c <program_end+0x8>
    8f78:	e12fff1e 	bx	lr
    8f7c:	00009c48 	.word	0x00009c48

00008f80 <_cstart>:
    8f80:	e92d4030 	push	{r4, r5, lr}
    8f84:	e24dd00c 	sub	sp, sp, #12, 0
    8f88:	e59f3098 	ldr	r3, [pc, #152]	; 9028 <_cstart+0xa8>
    8f8c:	e59f2098 	ldr	r2, [pc, #152]	; 902c <_cstart+0xac>
    8f90:	e1530002 	cmp	r3, r2
    8f94:	33a02000 	movcc	r2, #0, 0
    8f98:	34c32001 	strbcc	r2, [r3], #1
    8f9c:	3afffffa 	bcc	8f8c <_cstart+0xc>
    8fa0:	eb00005b 	bl	9114 <uart_init>
    8fa4:	e3a03001 	mov	r3, #1, 0
    8fa8:	ee0f3f1c 	mcr	15, 0, r3, cr15, cr12, {0}
    8fac:	e3a02a01 	mov	r2, #4096	; 0x1000
    8fb0:	e3a01000 	mov	r1, #0, 0
    8fb4:	e1a00001 	mov	r0, r1
    8fb8:	eb000186 	bl	95d8 <memset>
    8fbc:	e3a04000 	mov	r4, #0, 0
    8fc0:	e1a05004 	mov	r5, r4
    8fc4:	ea000005 	b	8fe0 <_cstart+0x60>
    8fc8:	e2855001 	add	r5, r5, #1, 0
    8fcc:	e5912000 	ldr	r2, [r1]
    8fd0:	e1a03005 	mov	r3, r5
    8fd4:	e59f0054 	ldr	r0, [pc, #84]	; 9030 <_cstart+0xb0>
    8fd8:	ebfffed4 	bl	8b30 <printk>
    8fdc:	e2844001 	add	r4, r4, #1, 0
    8fe0:	e3540b01 	cmp	r4, #1024	; 0x400
    8fe4:	2a000004 	bcs	8ffc <_cstart+0x7c>
    8fe8:	e1a01104 	lsl	r1, r4, #2
    8fec:	e5913000 	ldr	r3, [r1]
    8ff0:	e3530000 	cmp	r3, #0, 0
    8ff4:	0afffff8 	beq	8fdc <_cstart+0x5c>
    8ff8:	eafffff2 	b	8fc8 <_cstart+0x48>
    8ffc:	e3550000 	cmp	r5, #0, 0
    9000:	1a000001 	bne	900c <_cstart+0x8c>
    9004:	ebfffc30 	bl	80cc <notmain>
    9008:	ebffffd1 	bl	8f54 <clean_reboot>
    900c:	e58d5000 	str	r5, [sp]
    9010:	e3a0301b 	mov	r3, #27, 0
    9014:	e59f2018 	ldr	r2, [pc, #24]	; 9034 <_cstart+0xb4>
    9018:	e59f1018 	ldr	r1, [pc, #24]	; 9038 <_cstart+0xb8>
    901c:	e59f0018 	ldr	r0, [pc, #24]	; 903c <_cstart+0xbc>
    9020:	ebfffec2 	bl	8b30 <printk>
    9024:	ebffffca 	bl	8f54 <clean_reboot>
    9028:	00009c40 	.word	0x00009c40
    902c:	00009c48 	.word	0x00009c48
    9030:	00009ab0 	.word	0x00009ab0
    9034:	00009b74 	.word	0x00009b74
    9038:	00009adc 	.word	0x00009adc
    903c:	00009b44 	.word	0x00009b44

00009040 <dev_barrier>:
    9040:	ea000002 	b	9050 <dsb>

00009044 <dmb>:
    9044:	e3a00000 	mov	r0, #0, 0
    9048:	ee070fba 	mcr	15, 0, r0, cr7, cr10, {5}
    904c:	e12fff1e 	bx	lr

00009050 <dsb>:
    9050:	ee070f9a 	mcr	15, 0, r0, cr7, cr10, {4}
    9054:	e12fff1e 	bx	lr

00009058 <rpi_reboot>:
    9058:	e92d4010 	push	{r4, lr}
    905c:	e3a0000a 	mov	r0, #10, 0
    9060:	eb00001f 	bl	90e4 <delay_ms>
    9064:	e59f1014 	ldr	r1, [pc, #20]	; 9080 <rpi_reboot+0x28>
    9068:	e59f0014 	ldr	r0, [pc, #20]	; 9084 <rpi_reboot+0x2c>
    906c:	ebfffbec 	bl	8024 <PUT32>
    9070:	e59f1010 	ldr	r1, [pc, #16]	; 9088 <rpi_reboot+0x30>
    9074:	e59f0010 	ldr	r0, [pc, #16]	; 908c <rpi_reboot+0x34>
    9078:	ebfffbe9 	bl	8024 <PUT32>
    907c:	eafffffe 	b	907c <rpi_reboot+0x24>
    9080:	5a000001 	.word	0x5a000001
    9084:	20100024 	.word	0x20100024
    9088:	5a000020 	.word	0x5a000020
    908c:	2010001c 	.word	0x2010001c

00009090 <timer_get_usec_raw>:
    9090:	e92d4010 	push	{r4, lr}
    9094:	e59f0004 	ldr	r0, [pc, #4]	; 90a0 <timer_get_usec_raw+0x10>
    9098:	ebfffbe3 	bl	802c <GET32>
    909c:	e8bd8010 	pop	{r4, pc}
    90a0:	20003004 	.word	0x20003004

000090a4 <timer_get_usec>:
    90a4:	e92d4010 	push	{r4, lr}
    90a8:	ebffffe4 	bl	9040 <dev_barrier>
    90ac:	ebfffff7 	bl	9090 <timer_get_usec_raw>
    90b0:	e1a04000 	mov	r4, r0
    90b4:	ebffffe1 	bl	9040 <dev_barrier>
    90b8:	e1a00004 	mov	r0, r4
    90bc:	e8bd8010 	pop	{r4, pc}

000090c0 <delay_us>:
    90c0:	e92d4070 	push	{r4, r5, r6, lr}
    90c4:	e1a05000 	mov	r5, r0
    90c8:	ebfffff5 	bl	90a4 <timer_get_usec>
    90cc:	e1a04000 	mov	r4, r0
    90d0:	ebfffff3 	bl	90a4 <timer_get_usec>
    90d4:	e0400004 	sub	r0, r0, r4
    90d8:	e1500005 	cmp	r0, r5
    90dc:	3afffffb 	bcc	90d0 <delay_us+0x10>
    90e0:	e8bd8070 	pop	{r4, r5, r6, pc}

000090e4 <delay_ms>:
    90e4:	e92d4010 	push	{r4, lr}
    90e8:	e0603280 	rsb	r3, r0, r0, lsl #5
    90ec:	e0800103 	add	r0, r0, r3, lsl #2
    90f0:	e1a00180 	lsl	r0, r0, #3
    90f4:	ebfffff1 	bl	90c0 <delay_us>
    90f8:	e8bd8010 	pop	{r4, pc}

000090fc <delay_sec>:
    90fc:	e92d4010 	push	{r4, lr}
    9100:	e0603280 	rsb	r3, r0, r0, lsl #5
    9104:	e0800103 	add	r0, r0, r3, lsl #2
    9108:	e1a00180 	lsl	r0, r0, #3
    910c:	ebfffff4 	bl	90e4 <delay_ms>
    9110:	e8bd8010 	pop	{r4, pc}

00009114 <uart_init>:
    9114:	e92d4070 	push	{r4, r5, r6, lr}
    9118:	e3a01002 	mov	r1, #2, 0
    911c:	e3a0000e 	mov	r0, #14, 0
    9120:	eb000070 	bl	92e8 <gpio_set_function>
    9124:	e3a01002 	mov	r1, #2, 0
    9128:	e3a0000f 	mov	r0, #15, 0
    912c:	eb00006d 	bl	92e8 <gpio_set_function>
    9130:	ebffffc2 	bl	9040 <dev_barrier>
    9134:	e59f4094 	ldr	r4, [pc, #148]	; 91d0 <uart_init+0xbc>
    9138:	e1a00004 	mov	r0, r4
    913c:	ebfffbba 	bl	802c <GET32>
    9140:	e3801001 	orr	r1, r0, #1, 0
    9144:	e1a00004 	mov	r0, r4
    9148:	ebfffbb5 	bl	8024 <PUT32>
    914c:	ebffffbb 	bl	9040 <dev_barrier>
    9150:	e284405c 	add	r4, r4, #92, 0	; 0x5c
    9154:	e1a00004 	mov	r0, r4
    9158:	ebfffbb3 	bl	802c <GET32>
    915c:	e3c01007 	bic	r1, r0, #7, 0
    9160:	e1a00004 	mov	r0, r4
    9164:	ebfffbae 	bl	8024 <PUT32>
    9168:	ebffffb4 	bl	9040 <dev_barrier>
    916c:	e3a01006 	mov	r1, #6, 0
    9170:	e59f005c 	ldr	r0, [pc, #92]	; 91d4 <uart_init+0xc0>
    9174:	ebfffbaa 	bl	8024 <PUT32>
    9178:	ebffffb0 	bl	9040 <dev_barrier>
    917c:	e59f5054 	ldr	r5, [pc, #84]	; 91d8 <uart_init+0xc4>
    9180:	e1a00005 	mov	r0, r5
    9184:	ebfffba8 	bl	802c <GET32>
    9188:	e3c01003 	bic	r1, r0, #3, 0
    918c:	e1a00005 	mov	r0, r5
    9190:	ebfffba3 	bl	8024 <PUT32>
    9194:	ebffffa9 	bl	9040 <dev_barrier>
    9198:	e3a01003 	mov	r1, #3, 0
    919c:	e59f0038 	ldr	r0, [pc, #56]	; 91dc <uart_init+0xc8>
    91a0:	ebfffb9f 	bl	8024 <PUT32>
    91a4:	ebffffa5 	bl	9040 <dev_barrier>
    91a8:	e59f1030 	ldr	r1, [pc, #48]	; 91e0 <uart_init+0xcc>
    91ac:	e59f0030 	ldr	r0, [pc, #48]	; 91e4 <uart_init+0xd0>
    91b0:	ebfffb9b 	bl	8024 <PUT32>
    91b4:	ebffffa1 	bl	9040 <dev_barrier>
    91b8:	e1a00004 	mov	r0, r4
    91bc:	ebfffb9a 	bl	802c <GET32>
    91c0:	e3801003 	orr	r1, r0, #3, 0
    91c4:	e1a00004 	mov	r0, r4
    91c8:	ebfffb95 	bl	8024 <PUT32>
    91cc:	e8bd8070 	pop	{r4, r5, r6, pc}
    91d0:	20215004 	.word	0x20215004
    91d4:	20215048 	.word	0x20215048
    91d8:	20215044 	.word	0x20215044
    91dc:	2021504c 	.word	0x2021504c
    91e0:	0000010e 	.word	0x0000010e
    91e4:	20215068 	.word	0x20215068

000091e8 <uart_can_put8>:
    91e8:	e92d4010 	push	{r4, lr}
    91ec:	e59f000c 	ldr	r0, [pc, #12]	; 9200 <uart_can_put8+0x18>
    91f0:	ebfffb8d 	bl	802c <GET32>
    91f4:	e1a002a0 	lsr	r0, r0, #5
    91f8:	e2000001 	and	r0, r0, #1, 0
    91fc:	e8bd8010 	pop	{r4, pc}
    9200:	20215054 	.word	0x20215054

00009204 <uart_put8>:
    9204:	e92d4010 	push	{r4, lr}
    9208:	e1a04000 	mov	r4, r0
    920c:	ebfffff5 	bl	91e8 <uart_can_put8>
    9210:	e3500000 	cmp	r0, #0, 0
    9214:	0afffffc 	beq	920c <uart_put8+0x8>
    9218:	e1a01004 	mov	r1, r4
    921c:	e59f0008 	ldr	r0, [pc, #8]	; 922c <uart_put8+0x28>
    9220:	ebfffb7f 	bl	8024 <PUT32>
    9224:	e3a00001 	mov	r0, #1, 0
    9228:	e8bd8010 	pop	{r4, pc}
    922c:	20215040 	.word	0x20215040

00009230 <uart_has_data>:
    9230:	e92d4010 	push	{r4, lr}
    9234:	e59f0008 	ldr	r0, [pc, #8]	; 9244 <uart_has_data+0x14>
    9238:	ebfffb7b 	bl	802c <GET32>
    923c:	e2000001 	and	r0, r0, #1, 0
    9240:	e8bd8010 	pop	{r4, pc}
    9244:	20215054 	.word	0x20215054

00009248 <uart_get8>:
    9248:	e92d4010 	push	{r4, lr}
    924c:	ebfffff7 	bl	9230 <uart_has_data>
    9250:	e3500000 	cmp	r0, #0, 0
    9254:	0afffffc 	beq	924c <uart_get8+0x4>
    9258:	e59f0008 	ldr	r0, [pc, #8]	; 9268 <uart_get8+0x20>
    925c:	ebfffb72 	bl	802c <GET32>
    9260:	e6ef0070 	uxtb	r0, r0
    9264:	e8bd8010 	pop	{r4, pc}
    9268:	20215040 	.word	0x20215040

0000926c <uart_get8_async>:
    926c:	e92d4010 	push	{r4, lr}
    9270:	ebffffee 	bl	9230 <uart_has_data>
    9274:	e3500000 	cmp	r0, #0, 0
    9278:	0a000001 	beq	9284 <uart_get8_async+0x18>
    927c:	ebfffff1 	bl	9248 <uart_get8>
    9280:	e8bd8010 	pop	{r4, pc}
    9284:	e3e00000 	mvn	r0, #0, 0
    9288:	e8bd8010 	pop	{r4, pc}

0000928c <uart_tx_is_empty>:
    928c:	e92d4010 	push	{r4, lr}
    9290:	e59f000c 	ldr	r0, [pc, #12]	; 92a4 <uart_tx_is_empty+0x18>
    9294:	ebfffb64 	bl	802c <GET32>
    9298:	e1a00320 	lsr	r0, r0, #6
    929c:	e2000001 	and	r0, r0, #1, 0
    92a0:	e8bd8010 	pop	{r4, pc}
    92a4:	20215054 	.word	0x20215054

000092a8 <uart_flush_tx>:
    92a8:	e92d4010 	push	{r4, lr}
    92ac:	ebfffff6 	bl	928c <uart_tx_is_empty>
    92b0:	e3500000 	cmp	r0, #0, 0
    92b4:	18bd8010 	popne	{r4, pc}
    92b8:	eb0000fb 	bl	96ac <rpi_wait>
    92bc:	eafffffa 	b	92ac <uart_flush_tx+0x4>

000092c0 <uart_disable>:
    92c0:	e92d4010 	push	{r4, lr}
    92c4:	ebfffff7 	bl	92a8 <uart_flush_tx>
    92c8:	e59f4014 	ldr	r4, [pc, #20]	; 92e4 <uart_disable+0x24>
    92cc:	e1a00004 	mov	r0, r4
    92d0:	ebfffb55 	bl	802c <GET32>
    92d4:	e3c01001 	bic	r1, r0, #1, 0
    92d8:	e1a00004 	mov	r0, r4
    92dc:	ebfffb50 	bl	8024 <PUT32>
    92e0:	e8bd8010 	pop	{r4, pc}
    92e4:	20215004 	.word	0x20215004

000092e8 <gpio_set_function>:
    92e8:	e350002f 	cmp	r0, #47, 0	; 0x2f
    92ec:	1350001f 	cmpne	r0, #31, 0
    92f0:	812fff1e 	bxhi	lr
    92f4:	e92d4070 	push	{r4, r5, r6, lr}
    92f8:	e1a05001 	mov	r5, r1
    92fc:	e3d13007 	bics	r3, r1, #7, 0
    9300:	18bd8070 	popne	{r4, r5, r6, pc}
    9304:	e59f3040 	ldr	r3, [pc, #64]	; 934c <gpio_set_function+0x64>
    9308:	e0832093 	umull	r2, r3, r3, r0
    930c:	e1a031a3 	lsr	r3, r3, #3
    9310:	e1a02003 	mov	r2, r3
    9314:	e0833103 	add	r3, r3, r3, lsl #2
    9318:	e0403083 	sub	r3, r0, r3, lsl #1
    931c:	e0834083 	add	r4, r3, r3, lsl #1
    9320:	e2820302 	add	r0, r2, #134217728	; 0x8000000
    9324:	e2800702 	add	r0, r0, #524288	; 0x80000
    9328:	e1a06100 	lsl	r6, r0, #2
    932c:	e1a00006 	mov	r0, r6
    9330:	ebfffb3d 	bl	802c <GET32>
    9334:	e3a01007 	mov	r1, #7, 0
    9338:	e1c01411 	bic	r1, r0, r1, lsl r4
    933c:	e1811415 	orr	r1, r1, r5, lsl r4
    9340:	e1a00006 	mov	r0, r6
    9344:	ebfffb36 	bl	8024 <PUT32>
    9348:	e8bd8070 	pop	{r4, r5, r6, pc}
    934c:	cccccccd 	.word	0xcccccccd

00009350 <gpio_set_output>:
    9350:	e92d4010 	push	{r4, lr}
    9354:	e3a01001 	mov	r1, #1, 0
    9358:	ebffffe2 	bl	92e8 <gpio_set_function>
    935c:	e8bd8010 	pop	{r4, pc}

00009360 <gpio_set_on>:
    9360:	e92d4010 	push	{r4, lr}
    9364:	e350002f 	cmp	r0, #47, 0	; 0x2f
    9368:	0a000006 	beq	9388 <gpio_set_on+0x28>
    936c:	e350001f 	cmp	r0, #31, 0
    9370:	88bd8010 	pophi	{r4, pc}
    9374:	e3a01001 	mov	r1, #1, 0
    9378:	e1a01011 	lsl	r1, r1, r0
    937c:	e59f001c 	ldr	r0, [pc, #28]	; 93a0 <gpio_set_on+0x40>
    9380:	ebfffb27 	bl	8024 <PUT32>
    9384:	e8bd8010 	pop	{r4, pc}
    9388:	e200001f 	and	r0, r0, #31, 0
    938c:	e3a01001 	mov	r1, #1, 0
    9390:	e1a01011 	lsl	r1, r1, r0
    9394:	e59f0008 	ldr	r0, [pc, #8]	; 93a4 <gpio_set_on+0x44>
    9398:	ebfffb21 	bl	8024 <PUT32>
    939c:	e8bd8010 	pop	{r4, pc}
    93a0:	2020001c 	.word	0x2020001c
    93a4:	20200020 	.word	0x20200020

000093a8 <gpio_set_off>:
    93a8:	e92d4010 	push	{r4, lr}
    93ac:	e350002f 	cmp	r0, #47, 0	; 0x2f
    93b0:	0a000006 	beq	93d0 <gpio_set_off+0x28>
    93b4:	e350001f 	cmp	r0, #31, 0
    93b8:	88bd8010 	pophi	{r4, pc}
    93bc:	e3a01001 	mov	r1, #1, 0
    93c0:	e1a01011 	lsl	r1, r1, r0
    93c4:	e59f001c 	ldr	r0, [pc, #28]	; 93e8 <gpio_set_off+0x40>
    93c8:	ebfffb15 	bl	8024 <PUT32>
    93cc:	e8bd8010 	pop	{r4, pc}
    93d0:	e200001f 	and	r0, r0, #31, 0
    93d4:	e3a01001 	mov	r1, #1, 0
    93d8:	e1a01011 	lsl	r1, r1, r0
    93dc:	e59f0008 	ldr	r0, [pc, #8]	; 93ec <gpio_set_off+0x44>
    93e0:	ebfffb0f 	bl	8024 <PUT32>
    93e4:	e8bd8010 	pop	{r4, pc}
    93e8:	20200028 	.word	0x20200028
    93ec:	2020002c 	.word	0x2020002c

000093f0 <gpio_set_input>:
    93f0:	e92d4010 	push	{r4, lr}
    93f4:	e3a01000 	mov	r1, #0, 0
    93f8:	ebffffba 	bl	92e8 <gpio_set_function>
    93fc:	e8bd8010 	pop	{r4, pc}

00009400 <gpio_write>:
    9400:	e92d4010 	push	{r4, lr}
    9404:	e3510000 	cmp	r1, #0, 0
    9408:	0a000001 	beq	9414 <gpio_write+0x14>
    940c:	ebffffd3 	bl	9360 <gpio_set_on>
    9410:	e8bd8010 	pop	{r4, pc}
    9414:	ebffffe3 	bl	93a8 <gpio_set_off>
    9418:	e8bd8010 	pop	{r4, pc}

0000941c <gpio_read>:
    941c:	e350001f 	cmp	r0, #31, 0
    9420:	8a000006 	bhi	9440 <gpio_read+0x24>
    9424:	e92d4010 	push	{r4, lr}
    9428:	e1a04000 	mov	r4, r0
    942c:	e59f0014 	ldr	r0, [pc, #20]	; 9448 <gpio_read+0x2c>
    9430:	ebfffafd 	bl	802c <GET32>
    9434:	e1a00430 	lsr	r0, r0, r4
    9438:	e2000001 	and	r0, r0, #1, 0
    943c:	e8bd8010 	pop	{r4, pc}
    9440:	e3e00000 	mvn	r0, #0, 0
    9444:	e12fff1e 	bx	lr
    9448:	20200034 	.word	0x20200034

0000944c <using_staff_gpio>:
    944c:	e12fff1e 	bx	lr

00009450 <gpio_set_pud>:
    9450:	e92d4070 	push	{r4, r5, r6, lr}
    9454:	e24dd008 	sub	sp, sp, #8, 0
    9458:	e350001f 	cmp	r0, #31, 0
    945c:	8a000020 	bhi	94e4 <gpio_set_pud+0x94>
    9460:	e1a05000 	mov	r5, r0
    9464:	e1a04001 	mov	r4, r1
    9468:	e3510003 	cmp	r1, #3, 0
    946c:	8a000024 	bhi	9504 <gpio_set_pud+0xb4>
    9470:	e3510002 	cmp	r1, #2, 0
    9474:	8a00002a 	bhi	9524 <gpio_set_pud+0xd4>
    9478:	ebfffef0 	bl	9040 <dev_barrier>
    947c:	e59f60b8 	ldr	r6, [pc, #184]	; 953c <gpio_set_pud+0xec>
    9480:	e1a01004 	mov	r1, r4
    9484:	e1a00006 	mov	r0, r6
    9488:	ebfffae5 	bl	8024 <PUT32>
    948c:	e3a00096 	mov	r0, #150, 0	; 0x96
    9490:	ebffff0a 	bl	90c0 <delay_us>
    9494:	e59f40a4 	ldr	r4, [pc, #164]	; 9540 <gpio_set_pud+0xf0>
    9498:	e3a01001 	mov	r1, #1, 0
    949c:	e1a01511 	lsl	r1, r1, r5
    94a0:	e1a00004 	mov	r0, r4
    94a4:	ebfffade 	bl	8024 <PUT32>
    94a8:	e3a00096 	mov	r0, #150, 0	; 0x96
    94ac:	ebffff03 	bl	90c0 <delay_us>
    94b0:	e3a01000 	mov	r1, #0, 0
    94b4:	e1a00006 	mov	r0, r6
    94b8:	ebfffad9 	bl	8024 <PUT32>
    94bc:	e3a00096 	mov	r0, #150, 0	; 0x96
    94c0:	ebfffefe 	bl	90c0 <delay_us>
    94c4:	e3a01000 	mov	r1, #0, 0
    94c8:	e1a00004 	mov	r0, r4
    94cc:	ebfffad4 	bl	8024 <PUT32>
    94d0:	e3a00096 	mov	r0, #150, 0	; 0x96
    94d4:	ebfffef9 	bl	90c0 <delay_us>
    94d8:	ebfffed8 	bl	9040 <dev_barrier>
    94dc:	e28dd008 	add	sp, sp, #8, 0
    94e0:	e8bd8070 	pop	{r4, r5, r6, pc}
    94e4:	e59f3058 	ldr	r3, [pc, #88]	; 9544 <gpio_set_pud+0xf4>
    94e8:	e58d3000 	str	r3, [sp]
    94ec:	e3a03012 	mov	r3, #18, 0
    94f0:	e59f2050 	ldr	r2, [pc, #80]	; 9548 <gpio_set_pud+0xf8>
    94f4:	e59f1050 	ldr	r1, [pc, #80]	; 954c <gpio_set_pud+0xfc>
    94f8:	e59f0050 	ldr	r0, [pc, #80]	; 9550 <gpio_set_pud+0x100>
    94fc:	ebfffd8b 	bl	8b30 <printk>
    9500:	ebfffe93 	bl	8f54 <clean_reboot>
    9504:	e59f3048 	ldr	r3, [pc, #72]	; 9554 <gpio_set_pud+0x104>
    9508:	e58d3000 	str	r3, [sp]
    950c:	e3a03013 	mov	r3, #19, 0
    9510:	e59f2030 	ldr	r2, [pc, #48]	; 9548 <gpio_set_pud+0xf8>
    9514:	e59f1030 	ldr	r1, [pc, #48]	; 954c <gpio_set_pud+0xfc>
    9518:	e59f0038 	ldr	r0, [pc, #56]	; 9558 <gpio_set_pud+0x108>
    951c:	ebfffd83 	bl	8b30 <printk>
    9520:	ebfffe8b 	bl	8f54 <clean_reboot>
    9524:	e3a03018 	mov	r3, #24, 0
    9528:	e59f2018 	ldr	r2, [pc, #24]	; 9548 <gpio_set_pud+0xf8>
    952c:	e59f1018 	ldr	r1, [pc, #24]	; 954c <gpio_set_pud+0xfc>
    9530:	e59f0024 	ldr	r0, [pc, #36]	; 955c <gpio_set_pud+0x10c>
    9534:	ebfffd7d 	bl	8b30 <printk>
    9538:	ebfffe85 	bl	8f54 <clean_reboot>
    953c:	20200094 	.word	0x20200094
    9540:	20200098 	.word	0x20200098
    9544:	00009bc8 	.word	0x00009bc8
    9548:	00009c2c 	.word	0x00009c2c
    954c:	00009b84 	.word	0x00009b84
    9550:	00009b90 	.word	0x00009b90
    9554:	00009c0c 	.word	0x00009c0c
    9558:	00009bd4 	.word	0x00009bd4
    955c:	00009c14 	.word	0x00009c14

00009560 <gpio_set_pullup>:
    9560:	e92d4010 	push	{r4, lr}
    9564:	e3a01002 	mov	r1, #2, 0
    9568:	ebffffb8 	bl	9450 <gpio_set_pud>
    956c:	e8bd8010 	pop	{r4, pc}

00009570 <gpio_set_pulldown>:
    9570:	e92d4010 	push	{r4, lr}
    9574:	e3a01001 	mov	r1, #1, 0
    9578:	ebffffb4 	bl	9450 <gpio_set_pud>
    957c:	e8bd8010 	pop	{r4, pc}

00009580 <gpio_pud_off>:
    9580:	e92d4010 	push	{r4, lr}
    9584:	e3a01000 	mov	r1, #0, 0
    9588:	ebffffb0 	bl	9450 <gpio_set_pud>
    958c:	e8bd8010 	pop	{r4, pc}

00009590 <gpio_get_pud>:
    9590:	e92d4010 	push	{r4, lr}
    9594:	e59f0008 	ldr	r0, [pc, #8]	; 95a4 <gpio_get_pud+0x14>
    9598:	ebfffaa3 	bl	802c <GET32>
    959c:	e2000003 	and	r0, r0, #3, 0
    95a0:	e8bd8010 	pop	{r4, pc}
    95a4:	20200094 	.word	0x20200094

000095a8 <gpio_is_pullup>:
    95a8:	e92d4010 	push	{r4, lr}
    95ac:	ebfffff7 	bl	9590 <gpio_get_pud>
    95b0:	e3500002 	cmp	r0, #2, 0
    95b4:	13a00000 	movne	r0, #0, 0
    95b8:	03a00001 	moveq	r0, #1, 0
    95bc:	e8bd8010 	pop	{r4, pc}

000095c0 <gpio_is_pulldown>:
    95c0:	e92d4010 	push	{r4, lr}
    95c4:	ebfffff1 	bl	9590 <gpio_get_pud>
    95c8:	e3500001 	cmp	r0, #1, 0
    95cc:	13a00000 	movne	r0, #0, 0
    95d0:	03a00001 	moveq	r0, #1, 0
    95d4:	e8bd8010 	pop	{r4, pc}

000095d8 <memset>:
    95d8:	e3520000 	cmp	r2, #0, 0
    95dc:	012fff1e 	bxeq	lr
    95e0:	e3510000 	cmp	r1, #0, 0
    95e4:	1a000007 	bne	9608 <memset+0x30>
    95e8:	e3100007 	tst	r0, #7, 0
    95ec:	1a000001 	bne	95f8 <memset+0x20>
    95f0:	e3120007 	tst	r2, #7, 0
    95f4:	0a000011 	beq	9640 <memset+0x68>
    95f8:	e3100003 	tst	r0, #3, 0
    95fc:	1a000001 	bne	9608 <memset+0x30>
    9600:	e3120003 	tst	r2, #3, 0
    9604:	0a000001 	beq	9610 <memset+0x38>
    9608:	e0802002 	add	r2, r0, r2
    960c:	ea000008 	b	9634 <memset+0x5c>
    9610:	e1a02122 	lsr	r2, r2, #2
    9614:	ea000001 	b	9620 <memset+0x48>
    9618:	e4801004 	str	r1, [r0], #4
    961c:	e1a02003 	mov	r2, r3
    9620:	e2423001 	sub	r3, r2, #1, 0
    9624:	e3520000 	cmp	r2, #0, 0
    9628:	1afffffa 	bne	9618 <memset+0x40>
    962c:	e12fff1e 	bx	lr
    9630:	e4c01001 	strb	r1, [r0], #1
    9634:	e1500002 	cmp	r0, r2
    9638:	3afffffc 	bcc	9630 <memset+0x58>
    963c:	e12fff1e 	bx	lr
    9640:	e1a021a2 	lsr	r2, r2, #3
    9644:	e2423001 	sub	r3, r2, #1, 0
    9648:	e3520000 	cmp	r2, #0, 0
    964c:	012fff1e 	bxeq	lr
    9650:	e92d0030 	push	{r4, r5}
    9654:	e1a04001 	mov	r4, r1
    9658:	e1a05fc1 	asr	r5, r1, #31
    965c:	e0c040f8 	strd	r4, [r0], #8
    9660:	e1a02003 	mov	r2, r3
    9664:	e2433001 	sub	r3, r3, #1, 0
    9668:	e3520000 	cmp	r2, #0, 0
    966c:	1afffff8 	bne	9654 <memset+0x7c>
    9670:	e8bd0030 	pop	{r4, r5}
    9674:	e12fff1e 	bx	lr

00009678 <putk>:
    9678:	e92d4010 	push	{r4, lr}
    967c:	e1a04000 	mov	r4, r0
    9680:	e5d40000 	ldrb	r0, [r4]
    9684:	e3500000 	cmp	r0, #0, 0
    9688:	0a000004 	beq	96a0 <putk+0x28>
    968c:	e59f3014 	ldr	r3, [pc, #20]	; 96a8 <putk+0x30>
    9690:	e5933000 	ldr	r3, [r3]
    9694:	e12fff33 	blx	r3
    9698:	e2844001 	add	r4, r4, #1, 0
    969c:	eafffff7 	b	9680 <putk+0x8>
    96a0:	e3a00001 	mov	r0, #1, 0
    96a4:	e8bd8010 	pop	{r4, pc}
    96a8:	00009c3c 	.word	0x00009c3c

000096ac <rpi_wait>:
    96ac:	e12fff1e 	bx	lr
