
objs/l1/l2/l3//tests/4-arduino-keygen.elf:     file format elf32-littlearm


Disassembly of section .text:

00008000 <__code_start__>:
    8000:	e3a00013 	mov	r0, #19, 0
    8004:	e3800080 	orr	r0, r0, #128, 0	; 0x80
    8008:	e129f000 	msr	CPSR_fc, r0
    800c:	e3a01000 	mov	r1, #0, 0
    8010:	ee071f95 	mcr	15, 0, r1, cr7, cr5, {4}
    8014:	e3a0d302 	mov	sp, #134217728	; 0x8000000
    8018:	e3a0b000 	mov	fp, #0, 0
    801c:	eb0003da 	bl	8f8c <_cstart>
    8020:	eb00040f 	bl	9064 <rpi_reboot>

00008024 <PUT32>:
    8024:	e5801000 	str	r1, [r0]
    8028:	e12fff1e 	bx	lr

0000802c <GET32>:
    802c:	e5900000 	ldr	r0, [r0]
    8030:	e12fff1e 	bx	lr

00008034 <BRANCHTO>:
    8034:	e12fff10 	bx	r0

00008038 <i2c_write_cmd>:
    8038:	e92d4070 	push	{r4, r5, r6, lr}
    803c:	e1a04002 	mov	r4, r2
    8040:	e1a05003 	mov	r5, r3
    8044:	e1a02001 	mov	r2, r1
    8048:	e1a01000 	mov	r1, r0
    804c:	e3a00060 	mov	r0, #96, 0	; 0x60
    8050:	eb0000a1 	bl	82dc <i2c_write>
    8054:	e59d0010 	ldr	r0, [sp, #16]
    8058:	eb000424 	bl	90f0 <delay_ms>
    805c:	e1a02005 	mov	r2, r5
    8060:	e1a01004 	mov	r1, r4
    8064:	e3a00060 	mov	r0, #96, 0	; 0x60
    8068:	eb0000f9 	bl	8454 <i2c_read>
    806c:	e3a00000 	mov	r0, #0, 0
    8070:	e8bd8070 	pop	{r4, r5, r6, pc}

00008074 <notmain>:
    8074:	e92d4030 	push	{r4, r5, lr}
    8078:	e24dd0a4 	sub	sp, sp, #164, 0	; 0xa4
    807c:	eb000427 	bl	9120 <uart_init>
    8080:	e3a01060 	mov	r1, #96, 0	; 0x60
    8084:	e59f0180 	ldr	r0, [pc, #384]	; 820c <notmain+0x198>
    8088:	eb0002ab 	bl	8b3c <printk>
    808c:	eb00006c 	bl	8244 <i2c_init>
    8090:	eb0003ed 	bl	904c <dev_barrier>
    8094:	e59f0174 	ldr	r0, [pc, #372]	; 8210 <notmain+0x19c>
    8098:	eb0002a7 	bl	8b3c <printk>
    809c:	e59f3170 	ldr	r3, [pc, #368]	; 8214 <notmain+0x1a0>
    80a0:	e58d309c 	str	r3, [sp, #156]	; 0x9c
    80a4:	e3a03f4b 	mov	r3, #300	; 0x12c
    80a8:	e58d3000 	str	r3, [sp]
    80ac:	e3a03004 	mov	r3, #4, 0
    80b0:	e28d2098 	add	r2, sp, #152, 0	; 0x98
    80b4:	e1a01003 	mov	r1, r3
    80b8:	e28d009c 	add	r0, sp, #156, 0	; 0x9c
    80bc:	ebffffdd 	bl	8038 <i2c_write_cmd>
    80c0:	e59f0150 	ldr	r0, [pc, #336]	; 8218 <notmain+0x1a4>
    80c4:	eb00029c 	bl	8b3c <printk>
    80c8:	e59f014c 	ldr	r0, [pc, #332]	; 821c <notmain+0x1a8>
    80cc:	eb00029a 	bl	8b3c <printk>
    80d0:	e3a04000 	mov	r4, #0, 0
    80d4:	ea000005 	b	80f0 <notmain+0x7c>
    80d8:	e28d30a0 	add	r3, sp, #160, 0	; 0xa0
    80dc:	e0833004 	add	r3, r3, r4
    80e0:	e5531008 	ldrb	r1, [r3, #-8]
    80e4:	e59f0134 	ldr	r0, [pc, #308]	; 8220 <notmain+0x1ac>
    80e8:	eb000293 	bl	8b3c <printk>
    80ec:	e2844001 	add	r4, r4, #1, 0
    80f0:	e3540003 	cmp	r4, #3, 0
    80f4:	dafffff7 	ble	80d8 <notmain+0x64>
    80f8:	e59f0124 	ldr	r0, [pc, #292]	; 8224 <notmain+0x1b0>
    80fc:	eb00028e 	bl	8b3c <printk>
    8100:	e59f0120 	ldr	r0, [pc, #288]	; 8228 <notmain+0x1b4>
    8104:	eb00028c 	bl	8b3c <printk>
    8108:	e3a03007 	mov	r3, #7, 0
    810c:	e5cd3090 	strb	r3, [sp, #144]	; 0x90
    8110:	e3a03040 	mov	r3, #64, 0	; 0x40
    8114:	e5cd3091 	strb	r3, [sp, #145]	; 0x91
    8118:	e3a04000 	mov	r4, #0, 0
    811c:	e5cd4092 	strb	r4, [sp, #146]	; 0x92
    8120:	e5cd4093 	strb	r4, [sp, #147]	; 0x93
    8124:	e5cd4094 	strb	r4, [sp, #148]	; 0x94
    8128:	e5cd4095 	strb	r4, [sp, #149]	; 0x95
    812c:	e5cd4096 	strb	r4, [sp, #150]	; 0x96
    8130:	e5cd4097 	strb	r4, [sp, #151]	; 0x97
    8134:	e3a05f7d 	mov	r5, #500	; 0x1f4
    8138:	e58d5000 	str	r5, [sp]
    813c:	e28d2050 	add	r2, sp, #80, 0	; 0x50
    8140:	e3a01008 	mov	r1, #8, 0
    8144:	e28d0090 	add	r0, sp, #144, 0	; 0x90
    8148:	ebffffba 	bl	8038 <i2c_write_cmd>
    814c:	e1a01004 	mov	r1, r4
    8150:	e59f00d4 	ldr	r0, [pc, #212]	; 822c <notmain+0x1b8>
    8154:	eb000278 	bl	8b3c <printk>
    8158:	e59f30d0 	ldr	r3, [pc, #208]	; 8230 <notmain+0x1bc>
    815c:	e58d304c 	str	r3, [sp, #76]	; 0x4c
    8160:	e58d5000 	str	r5, [sp]
    8164:	e3a03020 	mov	r3, #32, 0
    8168:	e28d202c 	add	r2, sp, #44, 0	; 0x2c
    816c:	e3a01004 	mov	r1, #4, 0
    8170:	e28d004c 	add	r0, sp, #76, 0	; 0x4c
    8174:	ebffffaf 	bl	8038 <i2c_write_cmd>
    8178:	e59f00b4 	ldr	r0, [pc, #180]	; 8234 <notmain+0x1c0>
    817c:	eb00026e 	bl	8b3c <printk>
    8180:	ea000005 	b	819c <notmain+0x128>
    8184:	e28d30a0 	add	r3, sp, #160, 0	; 0xa0
    8188:	e0833004 	add	r3, r3, r4
    818c:	e5531074 	ldrb	r1, [r3, #-116]	; 0xffffff8c
    8190:	e59f00a0 	ldr	r0, [pc, #160]	; 8238 <notmain+0x1c4>
    8194:	eb000268 	bl	8b3c <printk>
    8198:	e2844001 	add	r4, r4, #1, 0
    819c:	e354001f 	cmp	r4, #31, 0
    81a0:	dafffff7 	ble	8184 <notmain+0x110>
    81a4:	e59f0078 	ldr	r0, [pc, #120]	; 8224 <notmain+0x1b0>
    81a8:	eb000263 	bl	8b3c <printk>
    81ac:	e59f3088 	ldr	r3, [pc, #136]	; 823c <notmain+0x1c8>
    81b0:	e58d3028 	str	r3, [sp, #40]	; 0x28
    81b4:	e3a03f7d 	mov	r3, #500	; 0x1f4
    81b8:	e58d3000 	str	r3, [sp]
    81bc:	e3a03020 	mov	r3, #32, 0
    81c0:	e28d2008 	add	r2, sp, #8, 0
    81c4:	e3a01004 	mov	r1, #4, 0
    81c8:	e28d0028 	add	r0, sp, #40, 0	; 0x28
    81cc:	ebffff99 	bl	8038 <i2c_write_cmd>
    81d0:	e59f0068 	ldr	r0, [pc, #104]	; 8240 <notmain+0x1cc>
    81d4:	eb000258 	bl	8b3c <printk>
    81d8:	e3a04000 	mov	r4, #0, 0
    81dc:	e354001f 	cmp	r4, #31, 0
    81e0:	ca000006 	bgt	8200 <notmain+0x18c>
    81e4:	e28d30a0 	add	r3, sp, #160, 0	; 0xa0
    81e8:	e0833004 	add	r3, r3, r4
    81ec:	e5531098 	ldrb	r1, [r3, #-152]	; 0xffffff68
    81f0:	e59f0040 	ldr	r0, [pc, #64]	; 8238 <notmain+0x1c4>
    81f4:	eb000250 	bl	8b3c <printk>
    81f8:	e2844001 	add	r4, r4, #1, 0
    81fc:	eafffff6 	b	81dc <notmain+0x168>
    8200:	e59f001c 	ldr	r0, [pc, #28]	; 8224 <notmain+0x1b0>
    8204:	eb00024c 	bl	8b3c <printk>
    8208:	eb000354 	bl	8f60 <clean_reboot>
    820c:	000096c0 	.word	0x000096c0
    8210:	000096e4 	.word	0x000096e4
    8214:	00003003 	.word	0x00003003
    8218:	000096f8 	.word	0x000096f8
    821c:	0000970c 	.word	0x0000970c
    8220:	00009724 	.word	0x00009724
    8224:	00009ab8 	.word	0x00009ab8
    8228:	00009728 	.word	0x00009728
    822c:	00009744 	.word	0x00009744
    8230:	00002303 	.word	0x00002303
    8234:	00009764 	.word	0x00009764
    8238:	00009774 	.word	0x00009774
    823c:	01002303 	.word	0x01002303
    8240:	00009778 	.word	0x00009778

00008244 <i2c_init>:
    8244:	e92d4010 	push	{r4, lr}
    8248:	e3a01004 	mov	r1, #4, 0
    824c:	e3a00002 	mov	r0, #2, 0
    8250:	eb000427 	bl	92f4 <gpio_set_function>
    8254:	e3a01004 	mov	r1, #4, 0
    8258:	e3a00003 	mov	r0, #3, 0
    825c:	eb000424 	bl	92f4 <gpio_set_function>
    8260:	e3a00002 	mov	r0, #2, 0
    8264:	eb0004c0 	bl	956c <gpio_set_pullup>
    8268:	e3a00003 	mov	r0, #3, 0
    826c:	eb0004be 	bl	956c <gpio_set_pullup>
    8270:	e59f404c 	ldr	r4, [pc, #76]	; 82c4 <i2c_init+0x80>
    8274:	e3a01000 	mov	r1, #0, 0
    8278:	e1a00004 	mov	r0, r4
    827c:	ebffff68 	bl	8024 <PUT32>
    8280:	eb000371 	bl	904c <dev_barrier>
    8284:	e59f103c 	ldr	r1, [pc, #60]	; 82c8 <i2c_init+0x84>
    8288:	e59f003c 	ldr	r0, [pc, #60]	; 82cc <i2c_init+0x88>
    828c:	ebffff64 	bl	8024 <PUT32>
    8290:	eb00036d 	bl	904c <dev_barrier>
    8294:	e59f1034 	ldr	r1, [pc, #52]	; 82d0 <i2c_init+0x8c>
    8298:	e59f0034 	ldr	r0, [pc, #52]	; 82d4 <i2c_init+0x90>
    829c:	ebffff60 	bl	8024 <PUT32>
    82a0:	eb000369 	bl	904c <dev_barrier>
    82a4:	e3a01902 	mov	r1, #32768	; 0x8000
    82a8:	e1a00004 	mov	r0, r4
    82ac:	ebffff5c 	bl	8024 <PUT32>
    82b0:	eb000365 	bl	904c <dev_barrier>
    82b4:	eb000364 	bl	904c <dev_barrier>
    82b8:	e59f0018 	ldr	r0, [pc, #24]	; 82d8 <i2c_init+0x94>
    82bc:	eb00021e 	bl	8b3c <printk>
    82c0:	e8bd8010 	pop	{r4, pc}
    82c4:	20804000 	.word	0x20804000
    82c8:	00000302 	.word	0x00000302
    82cc:	20804004 	.word	0x20804004
    82d0:	000005dc 	.word	0x000005dc
    82d4:	20804014 	.word	0x20804014
    82d8:	000096e4 	.word	0x000096e4

000082dc <i2c_write>:
    82dc:	e92d41f0 	push	{r4, r5, r6, r7, r8, lr}
    82e0:	e1a04000 	mov	r4, r0
    82e4:	e1a06001 	mov	r6, r1
    82e8:	e1a05002 	mov	r5, r2
    82ec:	e59f7140 	ldr	r7, [pc, #320]	; 8434 <i2c_write+0x158>
    82f0:	e1a00007 	mov	r0, r7
    82f4:	ebffff4c 	bl	802c <GET32>
    82f8:	e3801020 	orr	r1, r0, #32, 0
    82fc:	e1a00007 	mov	r0, r7
    8300:	ebffff47 	bl	8024 <PUT32>
    8304:	eb000350 	bl	904c <dev_barrier>
    8308:	e59f1128 	ldr	r1, [pc, #296]	; 8438 <i2c_write+0x15c>
    830c:	e59f0128 	ldr	r0, [pc, #296]	; 843c <i2c_write+0x160>
    8310:	ebffff43 	bl	8024 <PUT32>
    8314:	eb00034c 	bl	904c <dev_barrier>
    8318:	e1a01004 	mov	r1, r4
    831c:	e59f011c 	ldr	r0, [pc, #284]	; 8440 <i2c_write+0x164>
    8320:	ebffff3f 	bl	8024 <PUT32>
    8324:	eb000348 	bl	904c <dev_barrier>
    8328:	e1a01005 	mov	r1, r5
    832c:	e59f0110 	ldr	r0, [pc, #272]	; 8444 <i2c_write+0x168>
    8330:	ebffff3b 	bl	8024 <PUT32>
    8334:	eb000344 	bl	904c <dev_barrier>
    8338:	e3a04000 	mov	r4, #0, 0
    833c:	e354000f 	cmp	r4, #15, 0
    8340:	91540005 	cmpls	r4, r5
    8344:	2a000004 	bcs	835c <i2c_write+0x80>
    8348:	e7d61004 	ldrb	r1, [r6, r4]
    834c:	e59f00f4 	ldr	r0, [pc, #244]	; 8448 <i2c_write+0x16c>
    8350:	ebffff33 	bl	8024 <PUT32>
    8354:	e2844001 	add	r4, r4, #1, 0
    8358:	eafffff7 	b	833c <i2c_write+0x60>
    835c:	e59f40d0 	ldr	r4, [pc, #208]	; 8434 <i2c_write+0x158>
    8360:	e1a00004 	mov	r0, r4
    8364:	ebffff30 	bl	802c <GET32>
    8368:	e3c01902 	bic	r1, r0, #32768	; 0x8000
    836c:	e3c11081 	bic	r1, r1, #129, 0	; 0x81
    8370:	e3811902 	orr	r1, r1, #32768	; 0x8000
    8374:	e3811080 	orr	r1, r1, #128, 0	; 0x80
    8378:	e1a00004 	mov	r0, r4
    837c:	ebffff28 	bl	8024 <PUT32>
    8380:	eb000331 	bl	904c <dev_barrier>
    8384:	e3550010 	cmp	r5, #16, 0
    8388:	31a04005 	movcc	r4, r5
    838c:	23a04010 	movcs	r4, #16, 0
    8390:	ea000009 	b	83bc <i2c_write+0xe0>
    8394:	e1a01000 	mov	r1, r0
    8398:	e59f00ac 	ldr	r0, [pc, #172]	; 844c <i2c_write+0x170>
    839c:	eb0001e6 	bl	8b3c <printk>
    83a0:	e3e00000 	mvn	r0, #0, 0
    83a4:	e8bd81f0 	pop	{r4, r5, r6, r7, r8, pc}
    83a8:	e2847001 	add	r7, r4, #1, 0
    83ac:	e7d61004 	ldrb	r1, [r6, r4]
    83b0:	e59f0090 	ldr	r0, [pc, #144]	; 8448 <i2c_write+0x16c>
    83b4:	ebffff1a 	bl	8024 <PUT32>
    83b8:	e1a04007 	mov	r4, r7
    83bc:	e1540005 	cmp	r4, r5
    83c0:	3a000003 	bcc	83d4 <i2c_write+0xf8>
    83c4:	e59f0070 	ldr	r0, [pc, #112]	; 843c <i2c_write+0x160>
    83c8:	ebffff17 	bl	802c <GET32>
    83cc:	e3100002 	tst	r0, #2, 0
    83d0:	1a000008 	bne	83f8 <i2c_write+0x11c>
    83d4:	e59f0060 	ldr	r0, [pc, #96]	; 843c <i2c_write+0x160>
    83d8:	ebffff13 	bl	802c <GET32>
    83dc:	e3100c03 	tst	r0, #768	; 0x300
    83e0:	1affffeb 	bne	8394 <i2c_write+0xb8>
    83e4:	e3100010 	tst	r0, #16, 0
    83e8:	0afffff3 	beq	83bc <i2c_write+0xe0>
    83ec:	e1540005 	cmp	r4, r5
    83f0:	2afffff1 	bcs	83bc <i2c_write+0xe0>
    83f4:	eaffffeb 	b	83a8 <i2c_write+0xcc>
    83f8:	e59f003c 	ldr	r0, [pc, #60]	; 843c <i2c_write+0x160>
    83fc:	ebffff0a 	bl	802c <GET32>
    8400:	e3100002 	tst	r0, #2, 0
    8404:	0afffffb 	beq	83f8 <i2c_write+0x11c>
    8408:	e59f002c 	ldr	r0, [pc, #44]	; 843c <i2c_write+0x160>
    840c:	ebffff06 	bl	802c <GET32>
    8410:	e3100c03 	tst	r0, #768	; 0x300
    8414:	1a000001 	bne	8420 <i2c_write+0x144>
    8418:	e1a00005 	mov	r0, r5
    841c:	e8bd81f0 	pop	{r4, r5, r6, r7, r8, pc}
    8420:	e1a01000 	mov	r1, r0
    8424:	e59f0024 	ldr	r0, [pc, #36]	; 8450 <i2c_write+0x174>
    8428:	eb0001c3 	bl	8b3c <printk>
    842c:	e3e00000 	mvn	r0, #0, 0
    8430:	e8bd81f0 	pop	{r4, r5, r6, r7, r8, pc}
    8434:	20804000 	.word	0x20804000
    8438:	00000302 	.word	0x00000302
    843c:	20804004 	.word	0x20804004
    8440:	2080400c 	.word	0x2080400c
    8444:	20804008 	.word	0x20804008
    8448:	20804010 	.word	0x20804010
    844c:	00009788 	.word	0x00009788
    8450:	000097a4 	.word	0x000097a4

00008454 <i2c_read>:
    8454:	e92d41f0 	push	{r4, r5, r6, r7, r8, lr}
    8458:	e1a07000 	mov	r7, r0
    845c:	e1a08001 	mov	r8, r1
    8460:	e1a05002 	mov	r5, r2
    8464:	e59f011c 	ldr	r0, [pc, #284]	; 8588 <i2c_read+0x134>
    8468:	ebfffeef 	bl	802c <GET32>
    846c:	e2104001 	ands	r4, r0, #1, 0
    8470:	1a000027 	bne	8514 <i2c_read+0xc0>
    8474:	e59f6110 	ldr	r6, [pc, #272]	; 858c <i2c_read+0x138>
    8478:	e1a00006 	mov	r0, r6
    847c:	ebfffeea 	bl	802c <GET32>
    8480:	e3801020 	orr	r1, r0, #32, 0
    8484:	e1a00006 	mov	r0, r6
    8488:	ebfffee5 	bl	8024 <PUT32>
    848c:	eb0002ee 	bl	904c <dev_barrier>
    8490:	e59f10f8 	ldr	r1, [pc, #248]	; 8590 <i2c_read+0x13c>
    8494:	e59f00ec 	ldr	r0, [pc, #236]	; 8588 <i2c_read+0x134>
    8498:	ebfffee1 	bl	8024 <PUT32>
    849c:	eb0002ea 	bl	904c <dev_barrier>
    84a0:	e1a01007 	mov	r1, r7
    84a4:	e59f00e8 	ldr	r0, [pc, #232]	; 8594 <i2c_read+0x140>
    84a8:	ebfffedd 	bl	8024 <PUT32>
    84ac:	eb0002e6 	bl	904c <dev_barrier>
    84b0:	e1a01005 	mov	r1, r5
    84b4:	e59f00dc 	ldr	r0, [pc, #220]	; 8598 <i2c_read+0x144>
    84b8:	ebfffed9 	bl	8024 <PUT32>
    84bc:	eb0002e2 	bl	904c <dev_barrier>
    84c0:	e1a00006 	mov	r0, r6
    84c4:	ebfffed8 	bl	802c <GET32>
    84c8:	e3801081 	orr	r1, r0, #129, 0	; 0x81
    84cc:	e1a00006 	mov	r0, r6
    84d0:	ebfffed3 	bl	8024 <PUT32>
    84d4:	eb0002dc 	bl	904c <dev_barrier>
    84d8:	e1540005 	cmp	r4, r5
    84dc:	2a000015 	bcs	8538 <i2c_read+0xe4>
    84e0:	e59f00a0 	ldr	r0, [pc, #160]	; 8588 <i2c_read+0x134>
    84e4:	ebfffed0 	bl	802c <GET32>
    84e8:	e3100020 	tst	r0, #32, 0
    84ec:	1a00000c 	bne	8524 <i2c_read+0xd0>
    84f0:	e59f0090 	ldr	r0, [pc, #144]	; 8588 <i2c_read+0x134>
    84f4:	ebfffecc 	bl	802c <GET32>
    84f8:	e3100c03 	tst	r0, #768	; 0x300
    84fc:	0afffff7 	beq	84e0 <i2c_read+0x8c>
    8500:	e1a01000 	mov	r1, r0
    8504:	e59f0090 	ldr	r0, [pc, #144]	; 859c <i2c_read+0x148>
    8508:	eb00018b 	bl	8b3c <printk>
    850c:	e3e00000 	mvn	r0, #0, 0
    8510:	e8bd81f0 	pop	{r4, r5, r6, r7, r8, pc}
    8514:	e59f0084 	ldr	r0, [pc, #132]	; 85a0 <i2c_read+0x14c>
    8518:	eb000187 	bl	8b3c <printk>
    851c:	e3e00000 	mvn	r0, #0, 0
    8520:	e8bd81f0 	pop	{r4, r5, r6, r7, r8, pc}
    8524:	e59f0078 	ldr	r0, [pc, #120]	; 85a4 <i2c_read+0x150>
    8528:	ebfffebf 	bl	802c <GET32>
    852c:	e7c80004 	strb	r0, [r8, r4]
    8530:	e2844001 	add	r4, r4, #1, 0
    8534:	eaffffe7 	b	84d8 <i2c_read+0x84>
    8538:	e59f0048 	ldr	r0, [pc, #72]	; 8588 <i2c_read+0x134>
    853c:	ebfffeba 	bl	802c <GET32>
    8540:	e3100002 	tst	r0, #2, 0
    8544:	1a000006 	bne	8564 <i2c_read+0x110>
    8548:	e3100c03 	tst	r0, #768	; 0x300
    854c:	0afffff9 	beq	8538 <i2c_read+0xe4>
    8550:	e1a01000 	mov	r1, r0
    8554:	e59f004c 	ldr	r0, [pc, #76]	; 85a8 <i2c_read+0x154>
    8558:	eb000177 	bl	8b3c <printk>
    855c:	e3e00000 	mvn	r0, #0, 0
    8560:	e8bd81f0 	pop	{r4, r5, r6, r7, r8, pc}
    8564:	e3100c03 	tst	r0, #768	; 0x300
    8568:	1a000001 	bne	8574 <i2c_read+0x120>
    856c:	e1a00005 	mov	r0, r5
    8570:	e8bd81f0 	pop	{r4, r5, r6, r7, r8, pc}
    8574:	e1a01000 	mov	r1, r0
    8578:	e59f002c 	ldr	r0, [pc, #44]	; 85ac <i2c_read+0x158>
    857c:	eb00016e 	bl	8b3c <printk>
    8580:	e3e00000 	mvn	r0, #0, 0
    8584:	e8bd81f0 	pop	{r4, r5, r6, r7, r8, pc}
    8588:	20804004 	.word	0x20804004
    858c:	20804000 	.word	0x20804000
    8590:	00000302 	.word	0x00000302
    8594:	2080400c 	.word	0x2080400c
    8598:	20804008 	.word	0x20804008
    859c:	000097dc 	.word	0x000097dc
    85a0:	000097c0 	.word	0x000097c0
    85a4:	20804010 	.word	0x20804010
    85a8:	000097f8 	.word	0x000097f8
    85ac:	00009820 	.word	0x00009820

000085b0 <i2c_init_clk_div>:
    85b0:	e92d4070 	push	{r4, r5, r6, lr}
    85b4:	e1a04000 	mov	r4, r0
    85b8:	e59f504c 	ldr	r5, [pc, #76]	; 860c <i2c_init_clk_div+0x5c>
    85bc:	e3a01000 	mov	r1, #0, 0
    85c0:	e1a00005 	mov	r0, r5
    85c4:	ebfffe96 	bl	8024 <PUT32>
    85c8:	eb00029f 	bl	904c <dev_barrier>
    85cc:	e59f103c 	ldr	r1, [pc, #60]	; 8610 <i2c_init_clk_div+0x60>
    85d0:	e59f003c 	ldr	r0, [pc, #60]	; 8614 <i2c_init_clk_div+0x64>
    85d4:	ebfffe92 	bl	8024 <PUT32>
    85d8:	eb00029b 	bl	904c <dev_barrier>
    85dc:	e1a01004 	mov	r1, r4
    85e0:	e59f0030 	ldr	r0, [pc, #48]	; 8618 <i2c_init_clk_div+0x68>
    85e4:	ebfffe8e 	bl	8024 <PUT32>
    85e8:	eb000297 	bl	904c <dev_barrier>
    85ec:	e3a01902 	mov	r1, #32768	; 0x8000
    85f0:	e1a00005 	mov	r0, r5
    85f4:	ebfffe8a 	bl	8024 <PUT32>
    85f8:	eb000293 	bl	904c <dev_barrier>
    85fc:	e1a01004 	mov	r1, r4
    8600:	e59f0014 	ldr	r0, [pc, #20]	; 861c <i2c_init_clk_div+0x6c>
    8604:	eb00014c 	bl	8b3c <printk>
    8608:	e8bd8070 	pop	{r4, r5, r6, pc}
    860c:	20804000 	.word	0x20804000
    8610:	00000302 	.word	0x00000302
    8614:	20804004 	.word	0x20804004
    8618:	20804014 	.word	0x20804014
    861c:	0000983c 	.word	0x0000983c

00008620 <i2c_init_once>:
    8620:	e59f3020 	ldr	r3, [pc, #32]	; 8648 <i2c_init_once+0x28>
    8624:	e5933000 	ldr	r3, [r3]
    8628:	e3530000 	cmp	r3, #0, 0
    862c:	112fff1e 	bxne	lr
    8630:	e92d4010 	push	{r4, lr}
    8634:	ebffff02 	bl	8244 <i2c_init>
    8638:	e59f3008 	ldr	r3, [pc, #8]	; 8648 <i2c_init_once+0x28>
    863c:	e3a02001 	mov	r2, #1, 0
    8640:	e5832000 	str	r2, [r3]
    8644:	e8bd8010 	pop	{r4, pc}
    8648:	00009c94 	.word	0x00009c94

0000864c <atecc608a_send_command>:
    864c:	e92d40f0 	push	{r4, r5, r6, r7, lr}
    8650:	e24dd084 	sub	sp, sp, #132, 0	; 0x84
    8654:	e5ddc098 	ldrb	ip, [sp, #152]	; 0x98
    8658:	e59d409c 	ldr	r4, [sp, #156]	; 0x9c
    865c:	e59d50a0 	ldr	r5, [sp, #160]	; 0xa0
    8660:	e28c6008 	add	r6, ip, #8, 0
    8664:	e6ef6076 	uxtb	r6, r6
    8668:	e5cd6040 	strb	r6, [sp, #64]	; 0x40
    866c:	e5cd0041 	strb	r0, [sp, #65]	; 0x41
    8670:	e5cd1042 	strb	r1, [sp, #66]	; 0x42
    8674:	e5cd2043 	strb	r2, [sp, #67]	; 0x43
    8678:	e1a02422 	lsr	r2, r2, #8
    867c:	e5cd2044 	strb	r2, [sp, #68]	; 0x44
    8680:	e25c2000 	subs	r2, ip, #0, 0
    8684:	13a02001 	movne	r2, #1, 0
    8688:	e3530000 	cmp	r3, #0, 0
    868c:	03a02000 	moveq	r2, #0, 0
    8690:	e3520000 	cmp	r2, #0, 0
    8694:	1a000026 	bne	8734 <atecc608a_send_command+0xe8>
    8698:	e2463002 	sub	r3, r6, #2, 0
    869c:	e28d2080 	add	r2, sp, #128, 0	; 0x80
    86a0:	e0823003 	add	r3, r2, r3
    86a4:	e3e02055 	mvn	r2, #85, 0	; 0x55
    86a8:	e5432040 	strb	r2, [r3, #-64]	; 0xffffffc0
    86ac:	e2463001 	sub	r3, r6, #1, 0
    86b0:	e28d2080 	add	r2, sp, #128, 0	; 0x80
    86b4:	e0823003 	add	r3, r2, r3
    86b8:	e3e02044 	mvn	r2, #68, 0	; 0x44
    86bc:	e5432040 	strb	r2, [r3, #-64]	; 0xffffffc0
    86c0:	e1a02006 	mov	r2, r6
    86c4:	e28d1040 	add	r1, sp, #64, 0	; 0x40
    86c8:	e3a00060 	mov	r0, #96, 0	; 0x60
    86cc:	ebffff02 	bl	82dc <i2c_write>
    86d0:	e1560000 	cmp	r6, r0
    86d4:	1a000021 	bne	8760 <atecc608a_send_command+0x114>
    86d8:	e3a00005 	mov	r0, #5, 0
    86dc:	eb000283 	bl	90f0 <delay_ms>
    86e0:	e3a02001 	mov	r2, #1, 0
    86e4:	e1a0100d 	mov	r1, sp
    86e8:	e3a00060 	mov	r0, #96, 0	; 0x60
    86ec:	ebffff58 	bl	8454 <i2c_read>
    86f0:	e3500001 	cmp	r0, #1, 0
    86f4:	1a00001d 	bne	8770 <atecc608a_send_command+0x124>
    86f8:	e5dd6000 	ldrb	r6, [sp]
    86fc:	e3560001 	cmp	r6, #1, 0
    8700:	ca00001e 	bgt	8780 <atecc608a_send_command+0x134>
    8704:	e2553000 	subs	r3, r5, #0, 0
    8708:	13a03001 	movne	r3, #1, 0
    870c:	e3540000 	cmp	r4, #0, 0
    8710:	03a03000 	moveq	r3, #0, 0
    8714:	e3530000 	cmp	r3, #0, 0
    8718:	0a00002c 	beq	87d0 <atecc608a_send_command+0x184>
    871c:	e2466003 	sub	r6, r6, #3, 0
    8720:	e5d51000 	ldrb	r1, [r5]
    8724:	e1510006 	cmp	r1, r6
    8728:	a1a01006 	movge	r1, r6
    872c:	e3a03000 	mov	r3, #0, 0
    8730:	ea000023 	b	87c4 <atecc608a_send_command+0x178>
    8734:	e1a00003 	mov	r0, r3
    8738:	e3a03000 	mov	r3, #0, 0
    873c:	e15c0003 	cmp	ip, r3
    8740:	daffffd4 	ble	8698 <atecc608a_send_command+0x4c>
    8744:	e2832005 	add	r2, r3, #5, 0
    8748:	e7d01003 	ldrb	r1, [r0, r3]
    874c:	e28de080 	add	lr, sp, #128, 0	; 0x80
    8750:	e08e2002 	add	r2, lr, r2
    8754:	e5421040 	strb	r1, [r2, #-64]	; 0xffffffc0
    8758:	e2833001 	add	r3, r3, #1, 0
    875c:	eafffff6 	b	873c <atecc608a_send_command+0xf0>
    8760:	e59f0090 	ldr	r0, [pc, #144]	; 87f8 <atecc608a_send_command+0x1ac>
    8764:	eb0000f4 	bl	8b3c <printk>
    8768:	e3e00000 	mvn	r0, #0, 0
    876c:	ea00001b 	b	87e0 <atecc608a_send_command+0x194>
    8770:	e59f0084 	ldr	r0, [pc, #132]	; 87fc <atecc608a_send_command+0x1b0>
    8774:	eb0000f0 	bl	8b3c <printk>
    8778:	e3e00000 	mvn	r0, #0, 0
    877c:	ea000017 	b	87e0 <atecc608a_send_command+0x194>
    8780:	e2467001 	sub	r7, r6, #1, 0
    8784:	e1a02007 	mov	r2, r7
    8788:	e28d1001 	add	r1, sp, #1, 0
    878c:	e3a00060 	mov	r0, #96, 0	; 0x60
    8790:	ebffff2f 	bl	8454 <i2c_read>
    8794:	e1570000 	cmp	r7, r0
    8798:	0affffd9 	beq	8704 <atecc608a_send_command+0xb8>
    879c:	e59f005c 	ldr	r0, [pc, #92]	; 8800 <atecc608a_send_command+0x1b4>
    87a0:	eb0000e5 	bl	8b3c <printk>
    87a4:	e3e00000 	mvn	r0, #0, 0
    87a8:	ea00000c 	b	87e0 <atecc608a_send_command+0x194>
    87ac:	e2832002 	add	r2, r3, #2, 0
    87b0:	e28d0080 	add	r0, sp, #128, 0	; 0x80
    87b4:	e0802002 	add	r2, r0, r2
    87b8:	e5522080 	ldrb	r2, [r2, #-128]	; 0xffffff80
    87bc:	e7c42003 	strb	r2, [r4, r3]
    87c0:	e2833001 	add	r3, r3, #1, 0
    87c4:	e1510003 	cmp	r1, r3
    87c8:	cafffff7 	bgt	87ac <atecc608a_send_command+0x160>
    87cc:	e5c51000 	strb	r1, [r5]
    87d0:	e5dd1001 	ldrb	r1, [sp, #1]
    87d4:	e3510000 	cmp	r1, #0, 0
    87d8:	1a000002 	bne	87e8 <atecc608a_send_command+0x19c>
    87dc:	e3a00000 	mov	r0, #0, 0
    87e0:	e28dd084 	add	sp, sp, #132, 0	; 0x84
    87e4:	e8bd80f0 	pop	{r4, r5, r6, r7, pc}
    87e8:	e59f0014 	ldr	r0, [pc, #20]	; 8804 <atecc608a_send_command+0x1b8>
    87ec:	eb0000d2 	bl	8b3c <printk>
    87f0:	e3e00000 	mvn	r0, #0, 0
    87f4:	eafffff9 	b	87e0 <atecc608a_send_command+0x194>
    87f8:	00009864 	.word	0x00009864
    87fc:	0000988c 	.word	0x0000988c
    8800:	000098ac 	.word	0x000098ac
    8804:	000098d0 	.word	0x000098d0

00008808 <atecc608a_is_awake>:
    8808:	e52de004 	push	{lr}		; (str lr, [sp, #-4]!)
    880c:	e24dd00c 	sub	sp, sp, #12, 0
    8810:	e3a02004 	mov	r2, #4, 0
    8814:	e08d1002 	add	r1, sp, r2
    8818:	e3a00060 	mov	r0, #96, 0	; 0x60
    881c:	ebffff0c 	bl	8454 <i2c_read>
    8820:	e3500004 	cmp	r0, #4, 0
    8824:	0a000004 	beq	883c <atecc608a_is_awake+0x34>
    8828:	e3500004 	cmp	r0, #4, 0
    882c:	0a00000a 	beq	885c <atecc608a_is_awake+0x54>
    8830:	e3a00000 	mov	r0, #0, 0
    8834:	e28dd00c 	add	sp, sp, #12, 0
    8838:	e49df004 	pop	{pc}		; (ldr pc, [sp], #4)
    883c:	e5dd3004 	ldrb	r3, [sp, #4]
    8840:	e3530004 	cmp	r3, #4, 0
    8844:	1afffff7 	bne	8828 <atecc608a_is_awake+0x20>
    8848:	e5dd3005 	ldrb	r3, [sp, #5]
    884c:	e3530011 	cmp	r3, #17, 0
    8850:	1afffff4 	bne	8828 <atecc608a_is_awake+0x20>
    8854:	e3a00001 	mov	r0, #1, 0
    8858:	eafffff5 	b	8834 <atecc608a_is_awake+0x2c>
    885c:	e5dd3004 	ldrb	r3, [sp, #4]
    8860:	e3530004 	cmp	r3, #4, 0
    8864:	13a00000 	movne	r0, #0, 0
    8868:	1afffff1 	bne	8834 <atecc608a_is_awake+0x2c>
    886c:	e5dd3005 	ldrb	r3, [sp, #5]
    8870:	e35300ff 	cmp	r3, #255, 0	; 0xff
    8874:	13530001 	cmpne	r3, #1, 0
    8878:	03a00000 	moveq	r0, #0, 0
    887c:	0affffec 	beq	8834 <atecc608a_is_awake+0x2c>
    8880:	e3a00001 	mov	r0, #1, 0
    8884:	eaffffea 	b	8834 <atecc608a_is_awake+0x2c>

00008888 <atecc608a_wakeup>:
    8888:	e92d4030 	push	{r4, r5, lr}
    888c:	e24dd024 	sub	sp, sp, #36, 0	; 0x24
    8890:	e59f410c 	ldr	r4, [pc, #268]	; 89a4 <atecc608a_wakeup+0x11c>
    8894:	e1a00004 	mov	r0, r4
    8898:	ebfffde3 	bl	802c <GET32>
    889c:	e1a05000 	mov	r5, r0
    88a0:	e59f1100 	ldr	r1, [pc, #256]	; 89a8 <atecc608a_wakeup+0x120>
    88a4:	e1a00004 	mov	r0, r4
    88a8:	ebfffddd 	bl	8024 <PUT32>
    88ac:	e3a00002 	mov	r0, #2, 0
    88b0:	eb0002a9 	bl	935c <gpio_set_output>
    88b4:	e3a01000 	mov	r1, #0, 0
    88b8:	e3a00002 	mov	r0, #2, 0
    88bc:	eb0002d2 	bl	940c <gpio_write>
    88c0:	e3a00050 	mov	r0, #80, 0	; 0x50
    88c4:	eb000200 	bl	90cc <delay_us>
    88c8:	e3a01001 	mov	r1, #1, 0
    88cc:	e3a00002 	mov	r0, #2, 0
    88d0:	eb0002cd 	bl	940c <gpio_write>
    88d4:	e3a00002 	mov	r0, #2, 0
    88d8:	eb0002c7 	bl	93fc <gpio_set_input>
    88dc:	e3a00002 	mov	r0, #2, 0
    88e0:	eb000321 	bl	956c <gpio_set_pullup>
    88e4:	e1a01005 	mov	r1, r5
    88e8:	e1a00004 	mov	r0, r4
    88ec:	ebfffdcc 	bl	8024 <PUT32>
    88f0:	e3a00002 	mov	r0, #2, 0
    88f4:	eb0001fd 	bl	90f0 <delay_ms>
    88f8:	e3a02004 	mov	r2, #4, 0
    88fc:	e1a0100d 	mov	r1, sp
    8900:	e3a00060 	mov	r0, #96, 0	; 0x60
    8904:	ebfffed2 	bl	8454 <i2c_read>
    8908:	e3500000 	cmp	r0, #0, 0
    890c:	ba00000a 	blt	893c <atecc608a_wakeup+0xb4>
    8910:	e5dd1000 	ldrb	r1, [sp]
    8914:	e59f0090 	ldr	r0, [pc, #144]	; 89ac <atecc608a_wakeup+0x124>
    8918:	eb000087 	bl	8b3c <printk>
    891c:	e5dd2000 	ldrb	r2, [sp]
    8920:	e2423002 	sub	r3, r2, #2, 0
    8924:	e6ef3073 	uxtb	r3, r3
    8928:	e353001d 	cmp	r3, #29, 0
    892c:	9a000006 	bls	894c <atecc608a_wakeup+0xc4>
    8930:	e3a00000 	mov	r0, #0, 0
    8934:	e28dd024 	add	sp, sp, #36, 0	; 0x24
    8938:	e8bd8030 	pop	{r4, r5, pc}
    893c:	e59f006c 	ldr	r0, [pc, #108]	; 89b0 <atecc608a_wakeup+0x128>
    8940:	eb00007d 	bl	8b3c <printk>
    8944:	e3e00000 	mvn	r0, #0, 0
    8948:	eafffff9 	b	8934 <atecc608a_wakeup+0xac>
    894c:	e2422001 	sub	r2, r2, #1, 0
    8950:	e28d1001 	add	r1, sp, #1, 0
    8954:	e3a00060 	mov	r0, #96, 0	; 0x60
    8958:	ebfffebd 	bl	8454 <i2c_read>
    895c:	e5dd1000 	ldrb	r1, [sp]
    8960:	e59f004c 	ldr	r0, [pc, #76]	; 89b4 <atecc608a_wakeup+0x12c>
    8964:	eb000074 	bl	8b3c <printk>
    8968:	e3a04000 	mov	r4, #0, 0
    896c:	ea000005 	b	8988 <atecc608a_wakeup+0x100>
    8970:	e28d3020 	add	r3, sp, #32, 0
    8974:	e0833004 	add	r3, r3, r4
    8978:	e5531020 	ldrb	r1, [r3, #-32]	; 0xffffffe0
    897c:	e59f0034 	ldr	r0, [pc, #52]	; 89b8 <atecc608a_wakeup+0x130>
    8980:	eb00006d 	bl	8b3c <printk>
    8984:	e2844001 	add	r4, r4, #1, 0
    8988:	e5dd3000 	ldrb	r3, [sp]
    898c:	e1530004 	cmp	r3, r4
    8990:	cafffff6 	bgt	8970 <atecc608a_wakeup+0xe8>
    8994:	e59f0020 	ldr	r0, [pc, #32]	; 89bc <atecc608a_wakeup+0x134>
    8998:	eb000067 	bl	8b3c <printk>
    899c:	e3a00000 	mov	r0, #0, 0
    89a0:	eaffffe3 	b	8934 <atecc608a_wakeup+0xac>
    89a4:	20804014 	.word	0x20804014
    89a8:	000005dc 	.word	0x000005dc
    89ac:	00009928 	.word	0x00009928
    89b0:	000098fc 	.word	0x000098fc
    89b4:	00009944 	.word	0x00009944
    89b8:	00009964 	.word	0x00009964
    89bc:	00009ab8 	.word	0x00009ab8

000089c0 <atecc608a_sleep>:
    89c0:	e52de004 	push	{lr}		; (str lr, [sp, #-4]!)
    89c4:	e24dd00c 	sub	sp, sp, #12, 0
    89c8:	e3a02001 	mov	r2, #1, 0
    89cc:	e5cd2007 	strb	r2, [sp, #7]
    89d0:	e28d1007 	add	r1, sp, #7, 0
    89d4:	e3a00060 	mov	r0, #96, 0	; 0x60
    89d8:	ebfffe3f 	bl	82dc <i2c_write>
    89dc:	e28dd00c 	add	sp, sp, #12, 0
    89e0:	e49df004 	pop	{pc}		; (ldr pc, [sp], #4)

000089e4 <atecc608a_init>:
    89e4:	e52de004 	push	{lr}		; (str lr, [sp, #-4]!)
    89e8:	e24dd024 	sub	sp, sp, #36, 0	; 0x24
    89ec:	ebfffe14 	bl	8244 <i2c_init>
    89f0:	ebffffa4 	bl	8888 <atecc608a_wakeup>
    89f4:	e3500000 	cmp	r0, #0, 0
    89f8:	ba000015 	blt	8a54 <atecc608a_init+0x70>
    89fc:	e3a01000 	mov	r1, #0, 0
    8a00:	e5cd101f 	strb	r1, [sp, #31]
    8a04:	e3a03004 	mov	r3, #4, 0
    8a08:	e5cd3017 	strb	r3, [sp, #23]
    8a0c:	e28d3017 	add	r3, sp, #23, 0
    8a10:	e58d3008 	str	r3, [sp, #8]
    8a14:	e28d3018 	add	r3, sp, #24, 0
    8a18:	e58d3004 	str	r3, [sp, #4]
    8a1c:	e3a03001 	mov	r3, #1, 0
    8a20:	e58d3000 	str	r3, [sp]
    8a24:	e28d301f 	add	r3, sp, #31, 0
    8a28:	e1a02001 	mov	r2, r1
    8a2c:	e3a00030 	mov	r0, #48, 0	; 0x30
    8a30:	ebffff05 	bl	864c <atecc608a_send_command>
    8a34:	e3500000 	cmp	r0, #0, 0
    8a38:	ba000009 	blt	8a64 <atecc608a_init+0x80>
    8a3c:	e59f0030 	ldr	r0, [pc, #48]	; 8a74 <atecc608a_init+0x90>
    8a40:	eb00003d 	bl	8b3c <printk>
    8a44:	ebffffdd 	bl	89c0 <atecc608a_sleep>
    8a48:	e3a00000 	mov	r0, #0, 0
    8a4c:	e28dd024 	add	sp, sp, #36, 0	; 0x24
    8a50:	e49df004 	pop	{pc}		; (ldr pc, [sp], #4)
    8a54:	e59f001c 	ldr	r0, [pc, #28]	; 8a78 <atecc608a_init+0x94>
    8a58:	eb000037 	bl	8b3c <printk>
    8a5c:	e3e00000 	mvn	r0, #0, 0
    8a60:	eafffff9 	b	8a4c <atecc608a_init+0x68>
    8a64:	e59f0010 	ldr	r0, [pc, #16]	; 8a7c <atecc608a_init+0x98>
    8a68:	eb000033 	bl	8b3c <printk>
    8a6c:	e3e00000 	mvn	r0, #0, 0
    8a70:	eafffff5 	b	8a4c <atecc608a_init+0x68>
    8a74:	000099a8 	.word	0x000099a8
    8a78:	0000996c 	.word	0x0000996c
    8a7c:	00009988 	.word	0x00009988

00008a80 <atecc608a_random>:
    8a80:	e92d4030 	push	{r4, r5, lr}
    8a84:	e24dd03c 	sub	sp, sp, #60, 0	; 0x3c
    8a88:	e1a04000 	mov	r4, r0
    8a8c:	e3a03020 	mov	r3, #32, 0
    8a90:	e5cd3017 	strb	r3, [sp, #23]
    8a94:	e28d3017 	add	r3, sp, #23, 0
    8a98:	e58d3008 	str	r3, [sp, #8]
    8a9c:	e28d3018 	add	r3, sp, #24, 0
    8aa0:	e58d3004 	str	r3, [sp, #4]
    8aa4:	e3a01000 	mov	r1, #0, 0
    8aa8:	e58d1000 	str	r1, [sp]
    8aac:	e1a03001 	mov	r3, r1
    8ab0:	e1a02001 	mov	r2, r1
    8ab4:	e3a0001b 	mov	r0, #27, 0
    8ab8:	ebfffee3 	bl	864c <atecc608a_send_command>
    8abc:	e1a05000 	mov	r5, r0
    8ac0:	ebffffbe 	bl	89c0 <atecc608a_sleep>
    8ac4:	e3550000 	cmp	r5, #0, 0
    8ac8:	ba00000b 	blt	8afc <atecc608a_random+0x7c>
    8acc:	e3a03000 	mov	r3, #0, 0
    8ad0:	ea000004 	b	8ae8 <atecc608a_random+0x68>
    8ad4:	e28d2038 	add	r2, sp, #56, 0	; 0x38
    8ad8:	e0822003 	add	r2, r2, r3
    8adc:	e5522020 	ldrb	r2, [r2, #-32]	; 0xffffffe0
    8ae0:	e7c42003 	strb	r2, [r4, r3]
    8ae4:	e2833001 	add	r3, r3, #1, 0
    8ae8:	e353001f 	cmp	r3, #31, 0
    8aec:	dafffff8 	ble	8ad4 <atecc608a_random+0x54>
    8af0:	e3a00000 	mov	r0, #0, 0
    8af4:	e28dd03c 	add	sp, sp, #60, 0	; 0x3c
    8af8:	e8bd8030 	pop	{r4, r5, pc}
    8afc:	e3e00000 	mvn	r0, #0, 0
    8b00:	eafffffb 	b	8af4 <atecc608a_random+0x74>

00008b04 <atecc608a_sign>:
    8b04:	e92d4010 	push	{r4, lr}
    8b08:	e1a01000 	mov	r1, r0
    8b0c:	e59f0008 	ldr	r0, [pc, #8]	; 8b1c <atecc608a_sign+0x18>
    8b10:	eb000009 	bl	8b3c <printk>
    8b14:	e3e00000 	mvn	r0, #0, 0
    8b18:	e8bd8010 	pop	{r4, pc}
    8b1c:	000099cc 	.word	0x000099cc

00008b20 <atecc608a_verify>:
    8b20:	e92d4010 	push	{r4, lr}
    8b24:	e1a01000 	mov	r1, r0
    8b28:	e59f0008 	ldr	r0, [pc, #8]	; 8b38 <atecc608a_verify+0x18>
    8b2c:	eb000002 	bl	8b3c <printk>
    8b30:	e3e00000 	mvn	r0, #0, 0
    8b34:	e8bd8010 	pop	{r4, pc}
    8b38:	000099fc 	.word	0x000099fc

00008b3c <printk>:
    8b3c:	e92d000f 	push	{r0, r1, r2, r3}
    8b40:	e52de004 	push	{lr}		; (str lr, [sp, #-4]!)
    8b44:	e24dd00c 	sub	sp, sp, #12, 0
    8b48:	e28d1014 	add	r1, sp, #20, 0
    8b4c:	e58d1004 	str	r1, [sp, #4]
    8b50:	e59d0010 	ldr	r0, [sp, #16]
    8b54:	eb000047 	bl	8c78 <vprintk>
    8b58:	e28dd00c 	add	sp, sp, #12, 0
    8b5c:	e49de004 	pop	{lr}		; (ldr lr, [sp], #4)
    8b60:	e28dd010 	add	sp, sp, #16, 0
    8b64:	e12fff1e 	bx	lr

00008b68 <emit_val>:
    8b68:	e92d4010 	push	{r4, lr}
    8b6c:	e24dd030 	sub	sp, sp, #48, 0	; 0x30
    8b70:	e350000a 	cmp	r0, #10, 0
    8b74:	0a000014 	beq	8bcc <emit_val+0x64>
    8b78:	e3500010 	cmp	r0, #16, 0
    8b7c:	0a000022 	beq	8c0c <emit_val+0xa4>
    8b80:	e3500002 	cmp	r0, #2, 0
    8b84:	0a000006 	beq	8ba4 <emit_val+0x3c>
    8b88:	e58d0000 	str	r0, [sp]
    8b8c:	e3a0301b 	mov	r3, #27, 0
    8b90:	e59f20c0 	ldr	r2, [pc, #192]	; 8c58 <emit_val+0xf0>
    8b94:	e59f10c0 	ldr	r1, [pc, #192]	; 8c5c <emit_val+0xf4>
    8b98:	e59f00c0 	ldr	r0, [pc, #192]	; 8c60 <emit_val+0xf8>
    8b9c:	ebffffe6 	bl	8b3c <printk>
    8ba0:	eb0000ee 	bl	8f60 <clean_reboot>
    8ba4:	e28d400c 	add	r4, sp, #12, 0
    8ba8:	e2012001 	and	r2, r1, #1, 0
    8bac:	e59f00b0 	ldr	r0, [pc, #176]	; 8c64 <emit_val+0xfc>
    8bb0:	e7d02002 	ldrb	r2, [r0, r2]
    8bb4:	e5c42000 	strb	r2, [r4]
    8bb8:	e2844001 	add	r4, r4, #1, 0
    8bbc:	e3510001 	cmp	r1, #1, 0
    8bc0:	e1a010a1 	lsr	r1, r1, #1
    8bc4:	8afffff7 	bhi	8ba8 <emit_val+0x40>
    8bc8:	ea00001d 	b	8c44 <emit_val+0xdc>
    8bcc:	e28d400c 	add	r4, sp, #12, 0
    8bd0:	e59f3090 	ldr	r3, [pc, #144]	; 8c68 <emit_val+0x100>
    8bd4:	e0832193 	umull	r2, r3, r3, r1
    8bd8:	e1a031a3 	lsr	r3, r3, #3
    8bdc:	e1a00003 	mov	r0, r3
    8be0:	e0833103 	add	r3, r3, r3, lsl #2
    8be4:	e0413083 	sub	r3, r1, r3, lsl #1
    8be8:	e59fc07c 	ldr	ip, [pc, #124]	; 8c6c <emit_val+0x104>
    8bec:	e7dcc003 	ldrb	ip, [ip, r3]
    8bf0:	e5c4c000 	strb	ip, [r4]
    8bf4:	e2844001 	add	r4, r4, #1, 0
    8bf8:	e1a03001 	mov	r3, r1
    8bfc:	e1a01000 	mov	r1, r0
    8c00:	e3530009 	cmp	r3, #9, 0
    8c04:	8afffff1 	bhi	8bd0 <emit_val+0x68>
    8c08:	ea00000d 	b	8c44 <emit_val+0xdc>
    8c0c:	e28d400c 	add	r4, sp, #12, 0
    8c10:	e201200f 	and	r2, r1, #15, 0
    8c14:	e59f0054 	ldr	r0, [pc, #84]	; 8c70 <emit_val+0x108>
    8c18:	e7d02002 	ldrb	r2, [r0, r2]
    8c1c:	e5c42000 	strb	r2, [r4]
    8c20:	e2844001 	add	r4, r4, #1, 0
    8c24:	e351000f 	cmp	r1, #15, 0
    8c28:	e1a01221 	lsr	r1, r1, #4
    8c2c:	8afffff7 	bhi	8c10 <emit_val+0xa8>
    8c30:	ea000003 	b	8c44 <emit_val+0xdc>
    8c34:	e59f3038 	ldr	r3, [pc, #56]	; 8c74 <emit_val+0x10c>
    8c38:	e5933000 	ldr	r3, [r3]
    8c3c:	e5740001 	ldrb	r0, [r4, #-1]!
    8c40:	e12fff33 	blx	r3
    8c44:	e28d300c 	add	r3, sp, #12, 0
    8c48:	e1540003 	cmp	r4, r3
    8c4c:	8afffff8 	bhi	8c34 <emit_val+0xcc>
    8c50:	e28dd030 	add	sp, sp, #48, 0	; 0x30
    8c54:	e8bd8010 	pop	{r4, pc}
    8c58:	00009ae4 	.word	0x00009ae4
    8c5c:	00009a2c 	.word	0x00009a2c
    8c60:	00009a3c 	.word	0x00009a3c
    8c64:	00009a60 	.word	0x00009a60
    8c68:	cccccccd 	.word	0xcccccccd
    8c6c:	00009a64 	.word	0x00009a64
    8c70:	00009a70 	.word	0x00009a70
    8c74:	00009c90 	.word	0x00009c90

00008c78 <vprintk>:
    8c78:	e92d4030 	push	{r4, r5, lr}
    8c7c:	e24dd014 	sub	sp, sp, #20, 0
    8c80:	e1a04000 	mov	r4, r0
    8c84:	e58d100c 	str	r1, [sp, #12]
    8c88:	ea000003 	b	8c9c <vprintk+0x24>
    8c8c:	e59f3288 	ldr	r3, [pc, #648]	; 8f1c <vprintk+0x2a4>
    8c90:	e5933000 	ldr	r3, [r3]
    8c94:	e12fff33 	blx	r3
    8c98:	e2844001 	add	r4, r4, #1, 0
    8c9c:	e5d40000 	ldrb	r0, [r4]
    8ca0:	e3500000 	cmp	r0, #0, 0
    8ca4:	0a00009a 	beq	8f14 <vprintk+0x29c>
    8ca8:	e3500025 	cmp	r0, #37, 0	; 0x25
    8cac:	1afffff6 	bne	8c8c <vprintk+0x14>
    8cb0:	e2845001 	add	r5, r4, #1, 0
    8cb4:	e5d42001 	ldrb	r2, [r4, #1]
    8cb8:	e2423062 	sub	r3, r2, #98, 0	; 0x62
    8cbc:	e3530016 	cmp	r3, #22, 0
    8cc0:	979ff103 	ldrls	pc, [pc, r3, lsl #2]
    8cc4:	ea00008b 	b	8ef8 <vprintk+0x280>
    8cc8:	00008d24 	.word	0x00008d24
    8ccc:	00008d64 	.word	0x00008d64
    8cd0:	00008e7c 	.word	0x00008e7c
    8cd4:	00008ef8 	.word	0x00008ef8
    8cd8:	00008ef8 	.word	0x00008ef8
    8cdc:	00008ef8 	.word	0x00008ef8
    8ce0:	00008ef8 	.word	0x00008ef8
    8ce4:	00008ef8 	.word	0x00008ef8
    8ce8:	00008ef8 	.word	0x00008ef8
    8cec:	00008ef8 	.word	0x00008ef8
    8cf0:	00008d88 	.word	0x00008d88
    8cf4:	00008ef8 	.word	0x00008ef8
    8cf8:	00008ef8 	.word	0x00008ef8
    8cfc:	00008ef8 	.word	0x00008ef8
    8d00:	00008e40 	.word	0x00008e40
    8d04:	00008ef8 	.word	0x00008ef8
    8d08:	00008ef8 	.word	0x00008ef8
    8d0c:	00008ec0 	.word	0x00008ec0
    8d10:	00008ef8 	.word	0x00008ef8
    8d14:	00008d44 	.word	0x00008d44
    8d18:	00008ef8 	.word	0x00008ef8
    8d1c:	00008ef8 	.word	0x00008ef8
    8d20:	00008e40 	.word	0x00008e40
    8d24:	e59d300c 	ldr	r3, [sp, #12]
    8d28:	e2832004 	add	r2, r3, #4, 0
    8d2c:	e58d200c 	str	r2, [sp, #12]
    8d30:	e5931000 	ldr	r1, [r3]
    8d34:	e3a00002 	mov	r0, #2, 0
    8d38:	ebffff8a 	bl	8b68 <emit_val>
    8d3c:	e1a04005 	mov	r4, r5
    8d40:	eaffffd4 	b	8c98 <vprintk+0x20>
    8d44:	e59d300c 	ldr	r3, [sp, #12]
    8d48:	e2832004 	add	r2, r3, #4, 0
    8d4c:	e58d200c 	str	r2, [sp, #12]
    8d50:	e5931000 	ldr	r1, [r3]
    8d54:	e3a0000a 	mov	r0, #10, 0
    8d58:	ebffff82 	bl	8b68 <emit_val>
    8d5c:	e1a04005 	mov	r4, r5
    8d60:	eaffffcc 	b	8c98 <vprintk+0x20>
    8d64:	e59f31b0 	ldr	r3, [pc, #432]	; 8f1c <vprintk+0x2a4>
    8d68:	e5932000 	ldr	r2, [r3]
    8d6c:	e59d300c 	ldr	r3, [sp, #12]
    8d70:	e2831004 	add	r1, r3, #4, 0
    8d74:	e58d100c 	str	r1, [sp, #12]
    8d78:	e5930000 	ldr	r0, [r3]
    8d7c:	e12fff32 	blx	r2
    8d80:	e1a04005 	mov	r4, r5
    8d84:	eaffffc3 	b	8c98 <vprintk+0x20>
    8d88:	e2842002 	add	r2, r4, #2, 0
    8d8c:	e5d43002 	ldrb	r3, [r4, #2]
    8d90:	e353006c 	cmp	r3, #108, 0	; 0x6c
    8d94:	1a000018 	bne	8dfc <vprintk+0x184>
    8d98:	e2845003 	add	r5, r4, #3, 0
    8d9c:	e5d43003 	ldrb	r3, [r4, #3]
    8da0:	e3530078 	cmp	r3, #120, 0	; 0x78
    8da4:	1a00001b 	bne	8e18 <vprintk+0x1a0>
    8da8:	e59f416c 	ldr	r4, [pc, #364]	; 8f1c <vprintk+0x2a4>
    8dac:	e5943000 	ldr	r3, [r4]
    8db0:	e3a00030 	mov	r0, #48, 0	; 0x30
    8db4:	e12fff33 	blx	r3
    8db8:	e5943000 	ldr	r3, [r4]
    8dbc:	e3a00078 	mov	r0, #120, 0	; 0x78
    8dc0:	e12fff33 	blx	r3
    8dc4:	e59d300c 	ldr	r3, [sp, #12]
    8dc8:	e2833007 	add	r3, r3, #7, 0
    8dcc:	e3c33007 	bic	r3, r3, #7, 0
    8dd0:	e2832008 	add	r2, r3, #8, 0
    8dd4:	e58d200c 	str	r2, [sp, #12]
    8dd8:	e5934000 	ldr	r4, [r3]
    8ddc:	e5931004 	ldr	r1, [r3, #4]
    8de0:	e3510000 	cmp	r1, #0, 0
    8de4:	1a000012 	bne	8e34 <vprintk+0x1bc>
    8de8:	e1a01004 	mov	r1, r4
    8dec:	e3a00010 	mov	r0, #16, 0
    8df0:	ebffff5c 	bl	8b68 <emit_val>
    8df4:	e1a04005 	mov	r4, r5
    8df8:	eaffffa6 	b	8c98 <vprintk+0x20>
    8dfc:	e58d2000 	str	r2, [sp]
    8e00:	e3a0303b 	mov	r3, #59, 0	; 0x3b
    8e04:	e59f2114 	ldr	r2, [pc, #276]	; 8f20 <vprintk+0x2a8>
    8e08:	e59f1114 	ldr	r1, [pc, #276]	; 8f24 <vprintk+0x2ac>
    8e0c:	e59f0114 	ldr	r0, [pc, #276]	; 8f28 <vprintk+0x2b0>
    8e10:	ebffff49 	bl	8b3c <printk>
    8e14:	eb000051 	bl	8f60 <clean_reboot>
    8e18:	e58d5000 	str	r5, [sp]
    8e1c:	e3a0303e 	mov	r3, #62, 0	; 0x3e
    8e20:	e59f20f8 	ldr	r2, [pc, #248]	; 8f20 <vprintk+0x2a8>
    8e24:	e59f10f8 	ldr	r1, [pc, #248]	; 8f24 <vprintk+0x2ac>
    8e28:	e59f00f8 	ldr	r0, [pc, #248]	; 8f28 <vprintk+0x2b0>
    8e2c:	ebffff42 	bl	8b3c <printk>
    8e30:	eb00004a 	bl	8f60 <clean_reboot>
    8e34:	e3a00010 	mov	r0, #16, 0
    8e38:	ebffff4a 	bl	8b68 <emit_val>
    8e3c:	eaffffe9 	b	8de8 <vprintk+0x170>
    8e40:	e59f40d4 	ldr	r4, [pc, #212]	; 8f1c <vprintk+0x2a4>
    8e44:	e5943000 	ldr	r3, [r4]
    8e48:	e3a00030 	mov	r0, #48, 0	; 0x30
    8e4c:	e12fff33 	blx	r3
    8e50:	e5943000 	ldr	r3, [r4]
    8e54:	e3a00078 	mov	r0, #120, 0	; 0x78
    8e58:	e12fff33 	blx	r3
    8e5c:	e59d300c 	ldr	r3, [sp, #12]
    8e60:	e2832004 	add	r2, r3, #4, 0
    8e64:	e58d200c 	str	r2, [sp, #12]
    8e68:	e5931000 	ldr	r1, [r3]
    8e6c:	e3a00010 	mov	r0, #16, 0
    8e70:	ebffff3c 	bl	8b68 <emit_val>
    8e74:	e1a04005 	mov	r4, r5
    8e78:	eaffff86 	b	8c98 <vprintk+0x20>
    8e7c:	e59d300c 	ldr	r3, [sp, #12]
    8e80:	e2832004 	add	r2, r3, #4, 0
    8e84:	e58d200c 	str	r2, [sp, #12]
    8e88:	e5934000 	ldr	r4, [r3]
    8e8c:	e3540000 	cmp	r4, #0, 0
    8e90:	ba000004 	blt	8ea8 <vprintk+0x230>
    8e94:	e1a01004 	mov	r1, r4
    8e98:	e3a0000a 	mov	r0, #10, 0
    8e9c:	ebffff31 	bl	8b68 <emit_val>
    8ea0:	e1a04005 	mov	r4, r5
    8ea4:	eaffff7b 	b	8c98 <vprintk+0x20>
    8ea8:	e59f306c 	ldr	r3, [pc, #108]	; 8f1c <vprintk+0x2a4>
    8eac:	e5933000 	ldr	r3, [r3]
    8eb0:	e3a0002d 	mov	r0, #45, 0	; 0x2d
    8eb4:	e12fff33 	blx	r3
    8eb8:	e2644000 	rsb	r4, r4, #0, 0
    8ebc:	eafffff4 	b	8e94 <vprintk+0x21c>
    8ec0:	e59d300c 	ldr	r3, [sp, #12]
    8ec4:	e2832004 	add	r2, r3, #4, 0
    8ec8:	e58d200c 	str	r2, [sp, #12]
    8ecc:	e5934000 	ldr	r4, [r3]
    8ed0:	e5d40000 	ldrb	r0, [r4]
    8ed4:	e3500000 	cmp	r0, #0, 0
    8ed8:	0a000004 	beq	8ef0 <vprintk+0x278>
    8edc:	e59f3038 	ldr	r3, [pc, #56]	; 8f1c <vprintk+0x2a4>
    8ee0:	e5933000 	ldr	r3, [r3]
    8ee4:	e12fff33 	blx	r3
    8ee8:	e2844001 	add	r4, r4, #1, 0
    8eec:	eafffff7 	b	8ed0 <vprintk+0x258>
    8ef0:	e1a04005 	mov	r4, r5
    8ef4:	eaffff67 	b	8c98 <vprintk+0x20>
    8ef8:	e58d2000 	str	r2, [sp]
    8efc:	e3a03062 	mov	r3, #98, 0	; 0x62
    8f00:	e59f2018 	ldr	r2, [pc, #24]	; 8f20 <vprintk+0x2a8>
    8f04:	e59f1018 	ldr	r1, [pc, #24]	; 8f24 <vprintk+0x2ac>
    8f08:	e59f001c 	ldr	r0, [pc, #28]	; 8f2c <vprintk+0x2b4>
    8f0c:	ebffff0a 	bl	8b3c <printk>
    8f10:	eb000012 	bl	8f60 <clean_reboot>
    8f14:	e28dd014 	add	sp, sp, #20, 0
    8f18:	e8bd8030 	pop	{r4, r5, pc}
    8f1c:	00009c90 	.word	0x00009c90
    8f20:	00009af0 	.word	0x00009af0
    8f24:	00009a2c 	.word	0x00009a2c
    8f28:	00009a84 	.word	0x00009a84
    8f2c:	00009abc 	.word	0x00009abc

00008f30 <default_putchar>:
    8f30:	e92d4010 	push	{r4, lr}
    8f34:	e1a04000 	mov	r4, r0
    8f38:	e6ef0070 	uxtb	r0, r0
    8f3c:	eb0000b3 	bl	9210 <uart_put8>
    8f40:	e1a00004 	mov	r0, r4
    8f44:	e8bd8010 	pop	{r4, pc}

00008f48 <rpi_putchar_set>:
    8f48:	e59f300c 	ldr	r3, [pc, #12]	; 8f5c <rpi_putchar_set+0x14>
    8f4c:	e5932000 	ldr	r2, [r3]
    8f50:	e5830000 	str	r0, [r3]
    8f54:	e1a00002 	mov	r0, r2
    8f58:	e12fff1e 	bx	lr
    8f5c:	00009c90 	.word	0x00009c90

00008f60 <clean_reboot>:
    8f60:	e92d4010 	push	{r4, lr}
    8f64:	e59f0010 	ldr	r0, [pc, #16]	; 8f7c <clean_reboot+0x1c>
    8f68:	eb0001c5 	bl	9684 <putk>
    8f6c:	eb0000d0 	bl	92b4 <uart_flush_tx>
    8f70:	e3a0000a 	mov	r0, #10, 0
    8f74:	eb00005d 	bl	90f0 <delay_ms>
    8f78:	eb000039 	bl	9064 <rpi_reboot>
    8f7c:	00009af8 	.word	0x00009af8

00008f80 <program_end>:
    8f80:	e59f0000 	ldr	r0, [pc]	; 8f88 <program_end+0x8>
    8f84:	e12fff1e 	bx	lr
    8f88:	00009c98 	.word	0x00009c98

00008f8c <_cstart>:
    8f8c:	e92d4030 	push	{r4, r5, lr}
    8f90:	e24dd00c 	sub	sp, sp, #12, 0
    8f94:	e59f3098 	ldr	r3, [pc, #152]	; 9034 <_cstart+0xa8>
    8f98:	e59f2098 	ldr	r2, [pc, #152]	; 9038 <_cstart+0xac>
    8f9c:	e1530002 	cmp	r3, r2
    8fa0:	33a02000 	movcc	r2, #0, 0
    8fa4:	34c32001 	strbcc	r2, [r3], #1
    8fa8:	3afffffa 	bcc	8f98 <_cstart+0xc>
    8fac:	eb00005b 	bl	9120 <uart_init>
    8fb0:	e3a03001 	mov	r3, #1, 0
    8fb4:	ee0f3f1c 	mcr	15, 0, r3, cr15, cr12, {0}
    8fb8:	e3a02a01 	mov	r2, #4096	; 0x1000
    8fbc:	e3a01000 	mov	r1, #0, 0
    8fc0:	e1a00001 	mov	r0, r1
    8fc4:	eb000186 	bl	95e4 <memset>
    8fc8:	e3a04000 	mov	r4, #0, 0
    8fcc:	e1a05004 	mov	r5, r4
    8fd0:	ea000005 	b	8fec <_cstart+0x60>
    8fd4:	e2855001 	add	r5, r5, #1, 0
    8fd8:	e5912000 	ldr	r2, [r1]
    8fdc:	e1a03005 	mov	r3, r5
    8fe0:	e59f0054 	ldr	r0, [pc, #84]	; 903c <_cstart+0xb0>
    8fe4:	ebfffed4 	bl	8b3c <printk>
    8fe8:	e2844001 	add	r4, r4, #1, 0
    8fec:	e3540b01 	cmp	r4, #1024	; 0x400
    8ff0:	2a000004 	bcs	9008 <_cstart+0x7c>
    8ff4:	e1a01104 	lsl	r1, r4, #2
    8ff8:	e5913000 	ldr	r3, [r1]
    8ffc:	e3530000 	cmp	r3, #0, 0
    9000:	0afffff8 	beq	8fe8 <_cstart+0x5c>
    9004:	eafffff2 	b	8fd4 <_cstart+0x48>
    9008:	e3550000 	cmp	r5, #0, 0
    900c:	1a000001 	bne	9018 <_cstart+0x8c>
    9010:	ebfffc17 	bl	8074 <notmain>
    9014:	ebffffd1 	bl	8f60 <clean_reboot>
    9018:	e58d5000 	str	r5, [sp]
    901c:	e3a0301b 	mov	r3, #27, 0
    9020:	e59f2018 	ldr	r2, [pc, #24]	; 9040 <_cstart+0xb4>
    9024:	e59f1018 	ldr	r1, [pc, #24]	; 9044 <_cstart+0xb8>
    9028:	e59f0018 	ldr	r0, [pc, #24]	; 9048 <_cstart+0xbc>
    902c:	ebfffec2 	bl	8b3c <printk>
    9030:	ebffffca 	bl	8f60 <clean_reboot>
    9034:	00009c94 	.word	0x00009c94
    9038:	00009c98 	.word	0x00009c98
    903c:	00009b04 	.word	0x00009b04
    9040:	00009bc8 	.word	0x00009bc8
    9044:	00009b30 	.word	0x00009b30
    9048:	00009b98 	.word	0x00009b98

0000904c <dev_barrier>:
    904c:	ea000002 	b	905c <dsb>

00009050 <dmb>:
    9050:	e3a00000 	mov	r0, #0, 0
    9054:	ee070fba 	mcr	15, 0, r0, cr7, cr10, {5}
    9058:	e12fff1e 	bx	lr

0000905c <dsb>:
    905c:	ee070f9a 	mcr	15, 0, r0, cr7, cr10, {4}
    9060:	e12fff1e 	bx	lr

00009064 <rpi_reboot>:
    9064:	e92d4010 	push	{r4, lr}
    9068:	e3a0000a 	mov	r0, #10, 0
    906c:	eb00001f 	bl	90f0 <delay_ms>
    9070:	e59f1014 	ldr	r1, [pc, #20]	; 908c <rpi_reboot+0x28>
    9074:	e59f0014 	ldr	r0, [pc, #20]	; 9090 <rpi_reboot+0x2c>
    9078:	ebfffbe9 	bl	8024 <PUT32>
    907c:	e59f1010 	ldr	r1, [pc, #16]	; 9094 <rpi_reboot+0x30>
    9080:	e59f0010 	ldr	r0, [pc, #16]	; 9098 <rpi_reboot+0x34>
    9084:	ebfffbe6 	bl	8024 <PUT32>
    9088:	eafffffe 	b	9088 <rpi_reboot+0x24>
    908c:	5a000001 	.word	0x5a000001
    9090:	20100024 	.word	0x20100024
    9094:	5a000020 	.word	0x5a000020
    9098:	2010001c 	.word	0x2010001c

0000909c <timer_get_usec_raw>:
    909c:	e92d4010 	push	{r4, lr}
    90a0:	e59f0004 	ldr	r0, [pc, #4]	; 90ac <timer_get_usec_raw+0x10>
    90a4:	ebfffbe0 	bl	802c <GET32>
    90a8:	e8bd8010 	pop	{r4, pc}
    90ac:	20003004 	.word	0x20003004

000090b0 <timer_get_usec>:
    90b0:	e92d4010 	push	{r4, lr}
    90b4:	ebffffe4 	bl	904c <dev_barrier>
    90b8:	ebfffff7 	bl	909c <timer_get_usec_raw>
    90bc:	e1a04000 	mov	r4, r0
    90c0:	ebffffe1 	bl	904c <dev_barrier>
    90c4:	e1a00004 	mov	r0, r4
    90c8:	e8bd8010 	pop	{r4, pc}

000090cc <delay_us>:
    90cc:	e92d4070 	push	{r4, r5, r6, lr}
    90d0:	e1a05000 	mov	r5, r0
    90d4:	ebfffff5 	bl	90b0 <timer_get_usec>
    90d8:	e1a04000 	mov	r4, r0
    90dc:	ebfffff3 	bl	90b0 <timer_get_usec>
    90e0:	e0400004 	sub	r0, r0, r4
    90e4:	e1500005 	cmp	r0, r5
    90e8:	3afffffb 	bcc	90dc <delay_us+0x10>
    90ec:	e8bd8070 	pop	{r4, r5, r6, pc}

000090f0 <delay_ms>:
    90f0:	e92d4010 	push	{r4, lr}
    90f4:	e0603280 	rsb	r3, r0, r0, lsl #5
    90f8:	e0800103 	add	r0, r0, r3, lsl #2
    90fc:	e1a00180 	lsl	r0, r0, #3
    9100:	ebfffff1 	bl	90cc <delay_us>
    9104:	e8bd8010 	pop	{r4, pc}

00009108 <delay_sec>:
    9108:	e92d4010 	push	{r4, lr}
    910c:	e0603280 	rsb	r3, r0, r0, lsl #5
    9110:	e0800103 	add	r0, r0, r3, lsl #2
    9114:	e1a00180 	lsl	r0, r0, #3
    9118:	ebfffff4 	bl	90f0 <delay_ms>
    911c:	e8bd8010 	pop	{r4, pc}

00009120 <uart_init>:
    9120:	e92d4070 	push	{r4, r5, r6, lr}
    9124:	e3a01002 	mov	r1, #2, 0
    9128:	e3a0000e 	mov	r0, #14, 0
    912c:	eb000070 	bl	92f4 <gpio_set_function>
    9130:	e3a01002 	mov	r1, #2, 0
    9134:	e3a0000f 	mov	r0, #15, 0
    9138:	eb00006d 	bl	92f4 <gpio_set_function>
    913c:	ebffffc2 	bl	904c <dev_barrier>
    9140:	e59f4094 	ldr	r4, [pc, #148]	; 91dc <uart_init+0xbc>
    9144:	e1a00004 	mov	r0, r4
    9148:	ebfffbb7 	bl	802c <GET32>
    914c:	e3801001 	orr	r1, r0, #1, 0
    9150:	e1a00004 	mov	r0, r4
    9154:	ebfffbb2 	bl	8024 <PUT32>
    9158:	ebffffbb 	bl	904c <dev_barrier>
    915c:	e284405c 	add	r4, r4, #92, 0	; 0x5c
    9160:	e1a00004 	mov	r0, r4
    9164:	ebfffbb0 	bl	802c <GET32>
    9168:	e3c01007 	bic	r1, r0, #7, 0
    916c:	e1a00004 	mov	r0, r4
    9170:	ebfffbab 	bl	8024 <PUT32>
    9174:	ebffffb4 	bl	904c <dev_barrier>
    9178:	e3a01006 	mov	r1, #6, 0
    917c:	e59f005c 	ldr	r0, [pc, #92]	; 91e0 <uart_init+0xc0>
    9180:	ebfffba7 	bl	8024 <PUT32>
    9184:	ebffffb0 	bl	904c <dev_barrier>
    9188:	e59f5054 	ldr	r5, [pc, #84]	; 91e4 <uart_init+0xc4>
    918c:	e1a00005 	mov	r0, r5
    9190:	ebfffba5 	bl	802c <GET32>
    9194:	e3c01003 	bic	r1, r0, #3, 0
    9198:	e1a00005 	mov	r0, r5
    919c:	ebfffba0 	bl	8024 <PUT32>
    91a0:	ebffffa9 	bl	904c <dev_barrier>
    91a4:	e3a01003 	mov	r1, #3, 0
    91a8:	e59f0038 	ldr	r0, [pc, #56]	; 91e8 <uart_init+0xc8>
    91ac:	ebfffb9c 	bl	8024 <PUT32>
    91b0:	ebffffa5 	bl	904c <dev_barrier>
    91b4:	e59f1030 	ldr	r1, [pc, #48]	; 91ec <uart_init+0xcc>
    91b8:	e59f0030 	ldr	r0, [pc, #48]	; 91f0 <uart_init+0xd0>
    91bc:	ebfffb98 	bl	8024 <PUT32>
    91c0:	ebffffa1 	bl	904c <dev_barrier>
    91c4:	e1a00004 	mov	r0, r4
    91c8:	ebfffb97 	bl	802c <GET32>
    91cc:	e3801003 	orr	r1, r0, #3, 0
    91d0:	e1a00004 	mov	r0, r4
    91d4:	ebfffb92 	bl	8024 <PUT32>
    91d8:	e8bd8070 	pop	{r4, r5, r6, pc}
    91dc:	20215004 	.word	0x20215004
    91e0:	20215048 	.word	0x20215048
    91e4:	20215044 	.word	0x20215044
    91e8:	2021504c 	.word	0x2021504c
    91ec:	0000010e 	.word	0x0000010e
    91f0:	20215068 	.word	0x20215068

000091f4 <uart_can_put8>:
    91f4:	e92d4010 	push	{r4, lr}
    91f8:	e59f000c 	ldr	r0, [pc, #12]	; 920c <uart_can_put8+0x18>
    91fc:	ebfffb8a 	bl	802c <GET32>
    9200:	e1a002a0 	lsr	r0, r0, #5
    9204:	e2000001 	and	r0, r0, #1, 0
    9208:	e8bd8010 	pop	{r4, pc}
    920c:	20215054 	.word	0x20215054

00009210 <uart_put8>:
    9210:	e92d4010 	push	{r4, lr}
    9214:	e1a04000 	mov	r4, r0
    9218:	ebfffff5 	bl	91f4 <uart_can_put8>
    921c:	e3500000 	cmp	r0, #0, 0
    9220:	0afffffc 	beq	9218 <uart_put8+0x8>
    9224:	e1a01004 	mov	r1, r4
    9228:	e59f0008 	ldr	r0, [pc, #8]	; 9238 <uart_put8+0x28>
    922c:	ebfffb7c 	bl	8024 <PUT32>
    9230:	e3a00001 	mov	r0, #1, 0
    9234:	e8bd8010 	pop	{r4, pc}
    9238:	20215040 	.word	0x20215040

0000923c <uart_has_data>:
    923c:	e92d4010 	push	{r4, lr}
    9240:	e59f0008 	ldr	r0, [pc, #8]	; 9250 <uart_has_data+0x14>
    9244:	ebfffb78 	bl	802c <GET32>
    9248:	e2000001 	and	r0, r0, #1, 0
    924c:	e8bd8010 	pop	{r4, pc}
    9250:	20215054 	.word	0x20215054

00009254 <uart_get8>:
    9254:	e92d4010 	push	{r4, lr}
    9258:	ebfffff7 	bl	923c <uart_has_data>
    925c:	e3500000 	cmp	r0, #0, 0
    9260:	0afffffc 	beq	9258 <uart_get8+0x4>
    9264:	e59f0008 	ldr	r0, [pc, #8]	; 9274 <uart_get8+0x20>
    9268:	ebfffb6f 	bl	802c <GET32>
    926c:	e6ef0070 	uxtb	r0, r0
    9270:	e8bd8010 	pop	{r4, pc}
    9274:	20215040 	.word	0x20215040

00009278 <uart_get8_async>:
    9278:	e92d4010 	push	{r4, lr}
    927c:	ebffffee 	bl	923c <uart_has_data>
    9280:	e3500000 	cmp	r0, #0, 0
    9284:	0a000001 	beq	9290 <uart_get8_async+0x18>
    9288:	ebfffff1 	bl	9254 <uart_get8>
    928c:	e8bd8010 	pop	{r4, pc}
    9290:	e3e00000 	mvn	r0, #0, 0
    9294:	e8bd8010 	pop	{r4, pc}

00009298 <uart_tx_is_empty>:
    9298:	e92d4010 	push	{r4, lr}
    929c:	e59f000c 	ldr	r0, [pc, #12]	; 92b0 <uart_tx_is_empty+0x18>
    92a0:	ebfffb61 	bl	802c <GET32>
    92a4:	e1a00320 	lsr	r0, r0, #6
    92a8:	e2000001 	and	r0, r0, #1, 0
    92ac:	e8bd8010 	pop	{r4, pc}
    92b0:	20215054 	.word	0x20215054

000092b4 <uart_flush_tx>:
    92b4:	e92d4010 	push	{r4, lr}
    92b8:	ebfffff6 	bl	9298 <uart_tx_is_empty>
    92bc:	e3500000 	cmp	r0, #0, 0
    92c0:	18bd8010 	popne	{r4, pc}
    92c4:	eb0000fb 	bl	96b8 <rpi_wait>
    92c8:	eafffffa 	b	92b8 <uart_flush_tx+0x4>

000092cc <uart_disable>:
    92cc:	e92d4010 	push	{r4, lr}
    92d0:	ebfffff7 	bl	92b4 <uart_flush_tx>
    92d4:	e59f4014 	ldr	r4, [pc, #20]	; 92f0 <uart_disable+0x24>
    92d8:	e1a00004 	mov	r0, r4
    92dc:	ebfffb52 	bl	802c <GET32>
    92e0:	e3c01001 	bic	r1, r0, #1, 0
    92e4:	e1a00004 	mov	r0, r4
    92e8:	ebfffb4d 	bl	8024 <PUT32>
    92ec:	e8bd8010 	pop	{r4, pc}
    92f0:	20215004 	.word	0x20215004

000092f4 <gpio_set_function>:
    92f4:	e350002f 	cmp	r0, #47, 0	; 0x2f
    92f8:	1350001f 	cmpne	r0, #31, 0
    92fc:	812fff1e 	bxhi	lr
    9300:	e92d4070 	push	{r4, r5, r6, lr}
    9304:	e1a05001 	mov	r5, r1
    9308:	e3d13007 	bics	r3, r1, #7, 0
    930c:	18bd8070 	popne	{r4, r5, r6, pc}
    9310:	e59f3040 	ldr	r3, [pc, #64]	; 9358 <gpio_set_function+0x64>
    9314:	e0832093 	umull	r2, r3, r3, r0
    9318:	e1a031a3 	lsr	r3, r3, #3
    931c:	e1a02003 	mov	r2, r3
    9320:	e0833103 	add	r3, r3, r3, lsl #2
    9324:	e0403083 	sub	r3, r0, r3, lsl #1
    9328:	e0834083 	add	r4, r3, r3, lsl #1
    932c:	e2820302 	add	r0, r2, #134217728	; 0x8000000
    9330:	e2800702 	add	r0, r0, #524288	; 0x80000
    9334:	e1a06100 	lsl	r6, r0, #2
    9338:	e1a00006 	mov	r0, r6
    933c:	ebfffb3a 	bl	802c <GET32>
    9340:	e3a01007 	mov	r1, #7, 0
    9344:	e1c01411 	bic	r1, r0, r1, lsl r4
    9348:	e1811415 	orr	r1, r1, r5, lsl r4
    934c:	e1a00006 	mov	r0, r6
    9350:	ebfffb33 	bl	8024 <PUT32>
    9354:	e8bd8070 	pop	{r4, r5, r6, pc}
    9358:	cccccccd 	.word	0xcccccccd

0000935c <gpio_set_output>:
    935c:	e92d4010 	push	{r4, lr}
    9360:	e3a01001 	mov	r1, #1, 0
    9364:	ebffffe2 	bl	92f4 <gpio_set_function>
    9368:	e8bd8010 	pop	{r4, pc}

0000936c <gpio_set_on>:
    936c:	e92d4010 	push	{r4, lr}
    9370:	e350002f 	cmp	r0, #47, 0	; 0x2f
    9374:	0a000006 	beq	9394 <gpio_set_on+0x28>
    9378:	e350001f 	cmp	r0, #31, 0
    937c:	88bd8010 	pophi	{r4, pc}
    9380:	e3a01001 	mov	r1, #1, 0
    9384:	e1a01011 	lsl	r1, r1, r0
    9388:	e59f001c 	ldr	r0, [pc, #28]	; 93ac <gpio_set_on+0x40>
    938c:	ebfffb24 	bl	8024 <PUT32>
    9390:	e8bd8010 	pop	{r4, pc}
    9394:	e200001f 	and	r0, r0, #31, 0
    9398:	e3a01001 	mov	r1, #1, 0
    939c:	e1a01011 	lsl	r1, r1, r0
    93a0:	e59f0008 	ldr	r0, [pc, #8]	; 93b0 <gpio_set_on+0x44>
    93a4:	ebfffb1e 	bl	8024 <PUT32>
    93a8:	e8bd8010 	pop	{r4, pc}
    93ac:	2020001c 	.word	0x2020001c
    93b0:	20200020 	.word	0x20200020

000093b4 <gpio_set_off>:
    93b4:	e92d4010 	push	{r4, lr}
    93b8:	e350002f 	cmp	r0, #47, 0	; 0x2f
    93bc:	0a000006 	beq	93dc <gpio_set_off+0x28>
    93c0:	e350001f 	cmp	r0, #31, 0
    93c4:	88bd8010 	pophi	{r4, pc}
    93c8:	e3a01001 	mov	r1, #1, 0
    93cc:	e1a01011 	lsl	r1, r1, r0
    93d0:	e59f001c 	ldr	r0, [pc, #28]	; 93f4 <gpio_set_off+0x40>
    93d4:	ebfffb12 	bl	8024 <PUT32>
    93d8:	e8bd8010 	pop	{r4, pc}
    93dc:	e200001f 	and	r0, r0, #31, 0
    93e0:	e3a01001 	mov	r1, #1, 0
    93e4:	e1a01011 	lsl	r1, r1, r0
    93e8:	e59f0008 	ldr	r0, [pc, #8]	; 93f8 <gpio_set_off+0x44>
    93ec:	ebfffb0c 	bl	8024 <PUT32>
    93f0:	e8bd8010 	pop	{r4, pc}
    93f4:	20200028 	.word	0x20200028
    93f8:	2020002c 	.word	0x2020002c

000093fc <gpio_set_input>:
    93fc:	e92d4010 	push	{r4, lr}
    9400:	e3a01000 	mov	r1, #0, 0
    9404:	ebffffba 	bl	92f4 <gpio_set_function>
    9408:	e8bd8010 	pop	{r4, pc}

0000940c <gpio_write>:
    940c:	e92d4010 	push	{r4, lr}
    9410:	e3510000 	cmp	r1, #0, 0
    9414:	0a000001 	beq	9420 <gpio_write+0x14>
    9418:	ebffffd3 	bl	936c <gpio_set_on>
    941c:	e8bd8010 	pop	{r4, pc}
    9420:	ebffffe3 	bl	93b4 <gpio_set_off>
    9424:	e8bd8010 	pop	{r4, pc}

00009428 <gpio_read>:
    9428:	e350001f 	cmp	r0, #31, 0
    942c:	8a000006 	bhi	944c <gpio_read+0x24>
    9430:	e92d4010 	push	{r4, lr}
    9434:	e1a04000 	mov	r4, r0
    9438:	e59f0014 	ldr	r0, [pc, #20]	; 9454 <gpio_read+0x2c>
    943c:	ebfffafa 	bl	802c <GET32>
    9440:	e1a00430 	lsr	r0, r0, r4
    9444:	e2000001 	and	r0, r0, #1, 0
    9448:	e8bd8010 	pop	{r4, pc}
    944c:	e3e00000 	mvn	r0, #0, 0
    9450:	e12fff1e 	bx	lr
    9454:	20200034 	.word	0x20200034

00009458 <using_staff_gpio>:
    9458:	e12fff1e 	bx	lr

0000945c <gpio_set_pud>:
    945c:	e92d4070 	push	{r4, r5, r6, lr}
    9460:	e24dd008 	sub	sp, sp, #8, 0
    9464:	e350001f 	cmp	r0, #31, 0
    9468:	8a000020 	bhi	94f0 <gpio_set_pud+0x94>
    946c:	e1a05000 	mov	r5, r0
    9470:	e1a04001 	mov	r4, r1
    9474:	e3510003 	cmp	r1, #3, 0
    9478:	8a000024 	bhi	9510 <gpio_set_pud+0xb4>
    947c:	e3510002 	cmp	r1, #2, 0
    9480:	8a00002a 	bhi	9530 <gpio_set_pud+0xd4>
    9484:	ebfffef0 	bl	904c <dev_barrier>
    9488:	e59f60b8 	ldr	r6, [pc, #184]	; 9548 <gpio_set_pud+0xec>
    948c:	e1a01004 	mov	r1, r4
    9490:	e1a00006 	mov	r0, r6
    9494:	ebfffae2 	bl	8024 <PUT32>
    9498:	e3a00096 	mov	r0, #150, 0	; 0x96
    949c:	ebffff0a 	bl	90cc <delay_us>
    94a0:	e59f40a4 	ldr	r4, [pc, #164]	; 954c <gpio_set_pud+0xf0>
    94a4:	e3a01001 	mov	r1, #1, 0
    94a8:	e1a01511 	lsl	r1, r1, r5
    94ac:	e1a00004 	mov	r0, r4
    94b0:	ebfffadb 	bl	8024 <PUT32>
    94b4:	e3a00096 	mov	r0, #150, 0	; 0x96
    94b8:	ebffff03 	bl	90cc <delay_us>
    94bc:	e3a01000 	mov	r1, #0, 0
    94c0:	e1a00006 	mov	r0, r6
    94c4:	ebfffad6 	bl	8024 <PUT32>
    94c8:	e3a00096 	mov	r0, #150, 0	; 0x96
    94cc:	ebfffefe 	bl	90cc <delay_us>
    94d0:	e3a01000 	mov	r1, #0, 0
    94d4:	e1a00004 	mov	r0, r4
    94d8:	ebfffad1 	bl	8024 <PUT32>
    94dc:	e3a00096 	mov	r0, #150, 0	; 0x96
    94e0:	ebfffef9 	bl	90cc <delay_us>
    94e4:	ebfffed8 	bl	904c <dev_barrier>
    94e8:	e28dd008 	add	sp, sp, #8, 0
    94ec:	e8bd8070 	pop	{r4, r5, r6, pc}
    94f0:	e59f3058 	ldr	r3, [pc, #88]	; 9550 <gpio_set_pud+0xf4>
    94f4:	e58d3000 	str	r3, [sp]
    94f8:	e3a03012 	mov	r3, #18, 0
    94fc:	e59f2050 	ldr	r2, [pc, #80]	; 9554 <gpio_set_pud+0xf8>
    9500:	e59f1050 	ldr	r1, [pc, #80]	; 9558 <gpio_set_pud+0xfc>
    9504:	e59f0050 	ldr	r0, [pc, #80]	; 955c <gpio_set_pud+0x100>
    9508:	ebfffd8b 	bl	8b3c <printk>
    950c:	ebfffe93 	bl	8f60 <clean_reboot>
    9510:	e59f3048 	ldr	r3, [pc, #72]	; 9560 <gpio_set_pud+0x104>
    9514:	e58d3000 	str	r3, [sp]
    9518:	e3a03013 	mov	r3, #19, 0
    951c:	e59f2030 	ldr	r2, [pc, #48]	; 9554 <gpio_set_pud+0xf8>
    9520:	e59f1030 	ldr	r1, [pc, #48]	; 9558 <gpio_set_pud+0xfc>
    9524:	e59f0038 	ldr	r0, [pc, #56]	; 9564 <gpio_set_pud+0x108>
    9528:	ebfffd83 	bl	8b3c <printk>
    952c:	ebfffe8b 	bl	8f60 <clean_reboot>
    9530:	e3a03018 	mov	r3, #24, 0
    9534:	e59f2018 	ldr	r2, [pc, #24]	; 9554 <gpio_set_pud+0xf8>
    9538:	e59f1018 	ldr	r1, [pc, #24]	; 9558 <gpio_set_pud+0xfc>
    953c:	e59f0024 	ldr	r0, [pc, #36]	; 9568 <gpio_set_pud+0x10c>
    9540:	ebfffd7d 	bl	8b3c <printk>
    9544:	ebfffe85 	bl	8f60 <clean_reboot>
    9548:	20200094 	.word	0x20200094
    954c:	20200098 	.word	0x20200098
    9550:	00009c1c 	.word	0x00009c1c
    9554:	00009c80 	.word	0x00009c80
    9558:	00009bd8 	.word	0x00009bd8
    955c:	00009be4 	.word	0x00009be4
    9560:	00009c60 	.word	0x00009c60
    9564:	00009c28 	.word	0x00009c28
    9568:	00009c68 	.word	0x00009c68

0000956c <gpio_set_pullup>:
    956c:	e92d4010 	push	{r4, lr}
    9570:	e3a01002 	mov	r1, #2, 0
    9574:	ebffffb8 	bl	945c <gpio_set_pud>
    9578:	e8bd8010 	pop	{r4, pc}

0000957c <gpio_set_pulldown>:
    957c:	e92d4010 	push	{r4, lr}
    9580:	e3a01001 	mov	r1, #1, 0
    9584:	ebffffb4 	bl	945c <gpio_set_pud>
    9588:	e8bd8010 	pop	{r4, pc}

0000958c <gpio_pud_off>:
    958c:	e92d4010 	push	{r4, lr}
    9590:	e3a01000 	mov	r1, #0, 0
    9594:	ebffffb0 	bl	945c <gpio_set_pud>
    9598:	e8bd8010 	pop	{r4, pc}

0000959c <gpio_get_pud>:
    959c:	e92d4010 	push	{r4, lr}
    95a0:	e59f0008 	ldr	r0, [pc, #8]	; 95b0 <gpio_get_pud+0x14>
    95a4:	ebfffaa0 	bl	802c <GET32>
    95a8:	e2000003 	and	r0, r0, #3, 0
    95ac:	e8bd8010 	pop	{r4, pc}
    95b0:	20200094 	.word	0x20200094

000095b4 <gpio_is_pullup>:
    95b4:	e92d4010 	push	{r4, lr}
    95b8:	ebfffff7 	bl	959c <gpio_get_pud>
    95bc:	e3500002 	cmp	r0, #2, 0
    95c0:	13a00000 	movne	r0, #0, 0
    95c4:	03a00001 	moveq	r0, #1, 0
    95c8:	e8bd8010 	pop	{r4, pc}

000095cc <gpio_is_pulldown>:
    95cc:	e92d4010 	push	{r4, lr}
    95d0:	ebfffff1 	bl	959c <gpio_get_pud>
    95d4:	e3500001 	cmp	r0, #1, 0
    95d8:	13a00000 	movne	r0, #0, 0
    95dc:	03a00001 	moveq	r0, #1, 0
    95e0:	e8bd8010 	pop	{r4, pc}

000095e4 <memset>:
    95e4:	e3520000 	cmp	r2, #0, 0
    95e8:	012fff1e 	bxeq	lr
    95ec:	e3510000 	cmp	r1, #0, 0
    95f0:	1a000007 	bne	9614 <memset+0x30>
    95f4:	e3100007 	tst	r0, #7, 0
    95f8:	1a000001 	bne	9604 <memset+0x20>
    95fc:	e3120007 	tst	r2, #7, 0
    9600:	0a000011 	beq	964c <memset+0x68>
    9604:	e3100003 	tst	r0, #3, 0
    9608:	1a000001 	bne	9614 <memset+0x30>
    960c:	e3120003 	tst	r2, #3, 0
    9610:	0a000001 	beq	961c <memset+0x38>
    9614:	e0802002 	add	r2, r0, r2
    9618:	ea000008 	b	9640 <memset+0x5c>
    961c:	e1a02122 	lsr	r2, r2, #2
    9620:	ea000001 	b	962c <memset+0x48>
    9624:	e4801004 	str	r1, [r0], #4
    9628:	e1a02003 	mov	r2, r3
    962c:	e2423001 	sub	r3, r2, #1, 0
    9630:	e3520000 	cmp	r2, #0, 0
    9634:	1afffffa 	bne	9624 <memset+0x40>
    9638:	e12fff1e 	bx	lr
    963c:	e4c01001 	strb	r1, [r0], #1
    9640:	e1500002 	cmp	r0, r2
    9644:	3afffffc 	bcc	963c <memset+0x58>
    9648:	e12fff1e 	bx	lr
    964c:	e1a021a2 	lsr	r2, r2, #3
    9650:	e2423001 	sub	r3, r2, #1, 0
    9654:	e3520000 	cmp	r2, #0, 0
    9658:	012fff1e 	bxeq	lr
    965c:	e92d0030 	push	{r4, r5}
    9660:	e1a04001 	mov	r4, r1
    9664:	e1a05fc1 	asr	r5, r1, #31
    9668:	e0c040f8 	strd	r4, [r0], #8
    966c:	e1a02003 	mov	r2, r3
    9670:	e2433001 	sub	r3, r3, #1, 0
    9674:	e3520000 	cmp	r2, #0, 0
    9678:	1afffff8 	bne	9660 <memset+0x7c>
    967c:	e8bd0030 	pop	{r4, r5}
    9680:	e12fff1e 	bx	lr

00009684 <putk>:
    9684:	e92d4010 	push	{r4, lr}
    9688:	e1a04000 	mov	r4, r0
    968c:	e5d40000 	ldrb	r0, [r4]
    9690:	e3500000 	cmp	r0, #0, 0
    9694:	0a000004 	beq	96ac <putk+0x28>
    9698:	e59f3014 	ldr	r3, [pc, #20]	; 96b4 <putk+0x30>
    969c:	e5933000 	ldr	r3, [r3]
    96a0:	e12fff33 	blx	r3
    96a4:	e2844001 	add	r4, r4, #1, 0
    96a8:	eafffff7 	b	968c <putk+0x8>
    96ac:	e3a00001 	mov	r0, #1, 0
    96b0:	e8bd8010 	pop	{r4, pc}
    96b4:	00009c90 	.word	0x00009c90

000096b8 <rpi_wait>:
    96b8:	e12fff1e 	bx	lr

000096bc <__code_end__>:
    96bc:	00000000 	andeq	r0, r0, r0
