
objs/l1/l2/l3//tests/4-arduino-keygen.elf:     file format elf32-littlearm


Disassembly of section .text:

00008000 <__code_start__>:
    8000:	e3a00013 	mov	r0, #19, 0
    8004:	e3800080 	orr	r0, r0, #128, 0	; 0x80
    8008:	e129f000 	msr	CPSR_fc, r0
    800c:	e3a01000 	mov	r1, #0, 0
    8010:	ee071f95 	mcr	15, 0, r1, cr7, cr5, {4}
    8014:	e3a0d302 	mov	sp, #134217728	; 0x8000000
    8018:	e3a0b000 	mov	fp, #0, 0
    801c:	eb0003f0 	bl	8fe4 <_cstart>
    8020:	eb000425 	bl	90bc <rpi_reboot>

00008024 <PUT32>:
    8024:	e5801000 	str	r1, [r0]
    8028:	e12fff1e 	bx	lr

0000802c <GET32>:
    802c:	e5900000 	ldr	r0, [r0]
    8030:	e12fff1e 	bx	lr

00008034 <BRANCHTO>:
    8034:	e12fff10 	bx	r0

00008038 <notmain>:
    8038:	e92d4030 	push	{r4, r5, lr}
    803c:	e24dd09c 	sub	sp, sp, #156, 0	; 0x9c
    8040:	eb00044c 	bl	9178 <uart_init>
    8044:	e3a01060 	mov	r1, #96, 0	; 0x60
    8048:	e59f020c 	ldr	r0, [pc, #524]	; 825c <notmain+0x224>
    804c:	eb0002d0 	bl	8b94 <printk>
    8050:	eb000091 	bl	829c <i2c_init>
    8054:	eb000412 	bl	90a4 <dev_barrier>
    8058:	e59f0200 	ldr	r0, [pc, #512]	; 8260 <notmain+0x228>
    805c:	eb0002cc 	bl	8b94 <printk>
    8060:	e59f31fc 	ldr	r3, [pc, #508]	; 8264 <notmain+0x22c>
    8064:	e58d3094 	str	r3, [sp, #148]	; 0x94
    8068:	e3a02004 	mov	r2, #4, 0
    806c:	e28d1094 	add	r1, sp, #148, 0	; 0x94
    8070:	e3a00060 	mov	r0, #96, 0	; 0x60
    8074:	eb0000ae 	bl	8334 <i2c_write>
    8078:	e59f01e8 	ldr	r0, [pc, #488]	; 8268 <notmain+0x230>
    807c:	eb0002c4 	bl	8b94 <printk>
    8080:	e3a00f4b 	mov	r0, #300	; 0x12c
    8084:	eb00042f 	bl	9148 <delay_ms>
    8088:	e3a02004 	mov	r2, #4, 0
    808c:	e28d1090 	add	r1, sp, #144, 0	; 0x90
    8090:	e3a00060 	mov	r0, #96, 0	; 0x60
    8094:	eb000104 	bl	84ac <i2c_read>
    8098:	e59f01cc 	ldr	r0, [pc, #460]	; 826c <notmain+0x234>
    809c:	eb0002bc 	bl	8b94 <printk>
    80a0:	e3a04000 	mov	r4, #0, 0
    80a4:	ea000005 	b	80c0 <notmain+0x88>
    80a8:	e28d3098 	add	r3, sp, #152, 0	; 0x98
    80ac:	e0833004 	add	r3, r3, r4
    80b0:	e5531008 	ldrb	r1, [r3, #-8]
    80b4:	e59f01b4 	ldr	r0, [pc, #436]	; 8270 <notmain+0x238>
    80b8:	eb0002b5 	bl	8b94 <printk>
    80bc:	e2844001 	add	r4, r4, #1, 0
    80c0:	e3540003 	cmp	r4, #3, 0
    80c4:	dafffff7 	ble	80a8 <notmain+0x70>
    80c8:	e59f01a4 	ldr	r0, [pc, #420]	; 8274 <notmain+0x23c>
    80cc:	eb0002b0 	bl	8b94 <printk>
    80d0:	e59f01a0 	ldr	r0, [pc, #416]	; 8278 <notmain+0x240>
    80d4:	eb0002ae 	bl	8b94 <printk>
    80d8:	e3a03007 	mov	r3, #7, 0
    80dc:	e5cd3088 	strb	r3, [sp, #136]	; 0x88
    80e0:	e3a05040 	mov	r5, #64, 0	; 0x40
    80e4:	e5cd5089 	strb	r5, [sp, #137]	; 0x89
    80e8:	e3a04000 	mov	r4, #0, 0
    80ec:	e5cd408a 	strb	r4, [sp, #138]	; 0x8a
    80f0:	e5cd408b 	strb	r4, [sp, #139]	; 0x8b
    80f4:	e5cd408c 	strb	r4, [sp, #140]	; 0x8c
    80f8:	e5cd408d 	strb	r4, [sp, #141]	; 0x8d
    80fc:	e5cd408e 	strb	r4, [sp, #142]	; 0x8e
    8100:	e5cd408f 	strb	r4, [sp, #143]	; 0x8f
    8104:	e3a02008 	mov	r2, #8, 0
    8108:	e28d1088 	add	r1, sp, #136, 0	; 0x88
    810c:	e3a00060 	mov	r0, #96, 0	; 0x60
    8110:	eb000087 	bl	8334 <i2c_write>
    8114:	e1a01004 	mov	r1, r4
    8118:	e59f015c 	ldr	r0, [pc, #348]	; 827c <notmain+0x244>
    811c:	eb00029c 	bl	8b94 <printk>
    8120:	e3a00f7d 	mov	r0, #500	; 0x1f4
    8124:	eb000407 	bl	9148 <delay_ms>
    8128:	e1a02005 	mov	r2, r5
    812c:	e28d1048 	add	r1, sp, #72, 0	; 0x48
    8130:	e3a00060 	mov	r0, #96, 0	; 0x60
    8134:	eb0000dc 	bl	84ac <i2c_read>
    8138:	e59f0140 	ldr	r0, [pc, #320]	; 8280 <notmain+0x248>
    813c:	eb000294 	bl	8b94 <printk>
    8140:	e59f013c 	ldr	r0, [pc, #316]	; 8284 <notmain+0x24c>
    8144:	eb000292 	bl	8b94 <printk>
    8148:	ea000001 	b	8154 <notmain+0x11c>
    814c:	e59f0134 	ldr	r0, [pc, #308]	; 8288 <notmain+0x250>
    8150:	eb00028f 	bl	8b94 <printk>
    8154:	e354001f 	cmp	r4, #31, 0
    8158:	ca000008 	bgt	8180 <notmain+0x148>
    815c:	e28d3098 	add	r3, sp, #152, 0	; 0x98
    8160:	e0833004 	add	r3, r3, r4
    8164:	e5531050 	ldrb	r1, [r3, #-80]	; 0xffffffb0
    8168:	e59f011c 	ldr	r0, [pc, #284]	; 828c <notmain+0x254>
    816c:	eb000288 	bl	8b94 <printk>
    8170:	e2844001 	add	r4, r4, #1, 0
    8174:	e3140007 	tst	r4, #7, 0
    8178:	1afffff5 	bne	8154 <notmain+0x11c>
    817c:	eafffff2 	b	814c <notmain+0x114>
    8180:	e59f00ec 	ldr	r0, [pc, #236]	; 8274 <notmain+0x23c>
    8184:	eb000282 	bl	8b94 <printk>
    8188:	e59f3100 	ldr	r3, [pc, #256]	; 8290 <notmain+0x258>
    818c:	e58d3044 	str	r3, [sp, #68]	; 0x44
    8190:	e3a02004 	mov	r2, #4, 0
    8194:	e28d1044 	add	r1, sp, #68, 0	; 0x44
    8198:	e3a00060 	mov	r0, #96, 0	; 0x60
    819c:	eb000064 	bl	8334 <i2c_write>
    81a0:	e3a00f7d 	mov	r0, #500	; 0x1f4
    81a4:	eb0003e7 	bl	9148 <delay_ms>
    81a8:	e3a02020 	mov	r2, #32, 0
    81ac:	e28d1024 	add	r1, sp, #36, 0	; 0x24
    81b0:	e3a00060 	mov	r0, #96, 0	; 0x60
    81b4:	eb0000bc 	bl	84ac <i2c_read>
    81b8:	e59f00c4 	ldr	r0, [pc, #196]	; 8284 <notmain+0x24c>
    81bc:	eb000274 	bl	8b94 <printk>
    81c0:	e3a04000 	mov	r4, #0, 0
    81c4:	e354001f 	cmp	r4, #31, 0
    81c8:	ca000006 	bgt	81e8 <notmain+0x1b0>
    81cc:	e28d3098 	add	r3, sp, #152, 0	; 0x98
    81d0:	e0833004 	add	r3, r3, r4
    81d4:	e5531074 	ldrb	r1, [r3, #-116]	; 0xffffff8c
    81d8:	e59f00ac 	ldr	r0, [pc, #172]	; 828c <notmain+0x254>
    81dc:	eb00026c 	bl	8b94 <printk>
    81e0:	e2844001 	add	r4, r4, #1, 0
    81e4:	eafffff6 	b	81c4 <notmain+0x18c>
    81e8:	e59f0084 	ldr	r0, [pc, #132]	; 8274 <notmain+0x23c>
    81ec:	eb000268 	bl	8b94 <printk>
    81f0:	e59f309c 	ldr	r3, [pc, #156]	; 8294 <notmain+0x25c>
    81f4:	e58d3020 	str	r3, [sp, #32]
    81f8:	e3a02004 	mov	r2, #4, 0
    81fc:	e28d1020 	add	r1, sp, #32, 0
    8200:	e3a00060 	mov	r0, #96, 0	; 0x60
    8204:	eb00004a 	bl	8334 <i2c_write>
    8208:	e3a00f7d 	mov	r0, #500	; 0x1f4
    820c:	eb0003cd 	bl	9148 <delay_ms>
    8210:	e3a02020 	mov	r2, #32, 0
    8214:	e1a0100d 	mov	r1, sp
    8218:	e3a00060 	mov	r0, #96, 0	; 0x60
    821c:	eb0000a2 	bl	84ac <i2c_read>
    8220:	e59f0070 	ldr	r0, [pc, #112]	; 8298 <notmain+0x260>
    8224:	eb00025a 	bl	8b94 <printk>
    8228:	e3a04000 	mov	r4, #0, 0
    822c:	ea000005 	b	8248 <notmain+0x210>
    8230:	e28d3098 	add	r3, sp, #152, 0	; 0x98
    8234:	e0833004 	add	r3, r3, r4
    8238:	e5531098 	ldrb	r1, [r3, #-152]	; 0xffffff68
    823c:	e59f0048 	ldr	r0, [pc, #72]	; 828c <notmain+0x254>
    8240:	eb000253 	bl	8b94 <printk>
    8244:	e2844001 	add	r4, r4, #1, 0
    8248:	e354001f 	cmp	r4, #31, 0
    824c:	dafffff7 	ble	8230 <notmain+0x1f8>
    8250:	e59f001c 	ldr	r0, [pc, #28]	; 8274 <notmain+0x23c>
    8254:	eb00024e 	bl	8b94 <printk>
    8258:	eb000356 	bl	8fb8 <clean_reboot>
    825c:	00009718 	.word	0x00009718
    8260:	0000973c 	.word	0x0000973c
    8264:	00003003 	.word	0x00003003
    8268:	00009750 	.word	0x00009750
    826c:	00009764 	.word	0x00009764
    8270:	0000977c 	.word	0x0000977c
    8274:	00009b2c 	.word	0x00009b2c
    8278:	00009780 	.word	0x00009780
    827c:	0000979c 	.word	0x0000979c
    8280:	000097bc 	.word	0x000097bc
    8284:	000097d4 	.word	0x000097d4
    8288:	000097e8 	.word	0x000097e8
    828c:	000097e4 	.word	0x000097e4
    8290:	00002303 	.word	0x00002303
    8294:	01002303 	.word	0x01002303
    8298:	000097ec 	.word	0x000097ec

0000829c <i2c_init>:
    829c:	e92d4010 	push	{r4, lr}
    82a0:	e3a01004 	mov	r1, #4, 0
    82a4:	e3a00002 	mov	r0, #2, 0
    82a8:	eb000427 	bl	934c <gpio_set_function>
    82ac:	e3a01004 	mov	r1, #4, 0
    82b0:	e3a00003 	mov	r0, #3, 0
    82b4:	eb000424 	bl	934c <gpio_set_function>
    82b8:	e3a00002 	mov	r0, #2, 0
    82bc:	eb0004c0 	bl	95c4 <gpio_set_pullup>
    82c0:	e3a00003 	mov	r0, #3, 0
    82c4:	eb0004be 	bl	95c4 <gpio_set_pullup>
    82c8:	e59f404c 	ldr	r4, [pc, #76]	; 831c <i2c_init+0x80>
    82cc:	e3a01000 	mov	r1, #0, 0
    82d0:	e1a00004 	mov	r0, r4
    82d4:	ebffff52 	bl	8024 <PUT32>
    82d8:	eb000371 	bl	90a4 <dev_barrier>
    82dc:	e59f103c 	ldr	r1, [pc, #60]	; 8320 <i2c_init+0x84>
    82e0:	e59f003c 	ldr	r0, [pc, #60]	; 8324 <i2c_init+0x88>
    82e4:	ebffff4e 	bl	8024 <PUT32>
    82e8:	eb00036d 	bl	90a4 <dev_barrier>
    82ec:	e59f1034 	ldr	r1, [pc, #52]	; 8328 <i2c_init+0x8c>
    82f0:	e59f0034 	ldr	r0, [pc, #52]	; 832c <i2c_init+0x90>
    82f4:	ebffff4a 	bl	8024 <PUT32>
    82f8:	eb000369 	bl	90a4 <dev_barrier>
    82fc:	e3a01902 	mov	r1, #32768	; 0x8000
    8300:	e1a00004 	mov	r0, r4
    8304:	ebffff46 	bl	8024 <PUT32>
    8308:	eb000365 	bl	90a4 <dev_barrier>
    830c:	eb000364 	bl	90a4 <dev_barrier>
    8310:	e59f0018 	ldr	r0, [pc, #24]	; 8330 <i2c_init+0x94>
    8314:	eb00021e 	bl	8b94 <printk>
    8318:	e8bd8010 	pop	{r4, pc}
    831c:	20804000 	.word	0x20804000
    8320:	00000302 	.word	0x00000302
    8324:	20804004 	.word	0x20804004
    8328:	000005dc 	.word	0x000005dc
    832c:	20804014 	.word	0x20804014
    8330:	0000973c 	.word	0x0000973c

00008334 <i2c_write>:
    8334:	e92d41f0 	push	{r4, r5, r6, r7, r8, lr}
    8338:	e1a04000 	mov	r4, r0
    833c:	e1a06001 	mov	r6, r1
    8340:	e1a05002 	mov	r5, r2
    8344:	e59f7140 	ldr	r7, [pc, #320]	; 848c <i2c_write+0x158>
    8348:	e1a00007 	mov	r0, r7
    834c:	ebffff36 	bl	802c <GET32>
    8350:	e3801020 	orr	r1, r0, #32, 0
    8354:	e1a00007 	mov	r0, r7
    8358:	ebffff31 	bl	8024 <PUT32>
    835c:	eb000350 	bl	90a4 <dev_barrier>
    8360:	e59f1128 	ldr	r1, [pc, #296]	; 8490 <i2c_write+0x15c>
    8364:	e59f0128 	ldr	r0, [pc, #296]	; 8494 <i2c_write+0x160>
    8368:	ebffff2d 	bl	8024 <PUT32>
    836c:	eb00034c 	bl	90a4 <dev_barrier>
    8370:	e1a01004 	mov	r1, r4
    8374:	e59f011c 	ldr	r0, [pc, #284]	; 8498 <i2c_write+0x164>
    8378:	ebffff29 	bl	8024 <PUT32>
    837c:	eb000348 	bl	90a4 <dev_barrier>
    8380:	e1a01005 	mov	r1, r5
    8384:	e59f0110 	ldr	r0, [pc, #272]	; 849c <i2c_write+0x168>
    8388:	ebffff25 	bl	8024 <PUT32>
    838c:	eb000344 	bl	90a4 <dev_barrier>
    8390:	e3a04000 	mov	r4, #0, 0
    8394:	e354000f 	cmp	r4, #15, 0
    8398:	91540005 	cmpls	r4, r5
    839c:	2a000004 	bcs	83b4 <i2c_write+0x80>
    83a0:	e7d61004 	ldrb	r1, [r6, r4]
    83a4:	e59f00f4 	ldr	r0, [pc, #244]	; 84a0 <i2c_write+0x16c>
    83a8:	ebffff1d 	bl	8024 <PUT32>
    83ac:	e2844001 	add	r4, r4, #1, 0
    83b0:	eafffff7 	b	8394 <i2c_write+0x60>
    83b4:	e59f40d0 	ldr	r4, [pc, #208]	; 848c <i2c_write+0x158>
    83b8:	e1a00004 	mov	r0, r4
    83bc:	ebffff1a 	bl	802c <GET32>
    83c0:	e3c01902 	bic	r1, r0, #32768	; 0x8000
    83c4:	e3c11081 	bic	r1, r1, #129, 0	; 0x81
    83c8:	e3811902 	orr	r1, r1, #32768	; 0x8000
    83cc:	e3811080 	orr	r1, r1, #128, 0	; 0x80
    83d0:	e1a00004 	mov	r0, r4
    83d4:	ebffff12 	bl	8024 <PUT32>
    83d8:	eb000331 	bl	90a4 <dev_barrier>
    83dc:	e3550010 	cmp	r5, #16, 0
    83e0:	31a04005 	movcc	r4, r5
    83e4:	23a04010 	movcs	r4, #16, 0
    83e8:	ea000009 	b	8414 <i2c_write+0xe0>
    83ec:	e1a01000 	mov	r1, r0
    83f0:	e59f00ac 	ldr	r0, [pc, #172]	; 84a4 <i2c_write+0x170>
    83f4:	eb0001e6 	bl	8b94 <printk>
    83f8:	e3e00000 	mvn	r0, #0, 0
    83fc:	e8bd81f0 	pop	{r4, r5, r6, r7, r8, pc}
    8400:	e2847001 	add	r7, r4, #1, 0
    8404:	e7d61004 	ldrb	r1, [r6, r4]
    8408:	e59f0090 	ldr	r0, [pc, #144]	; 84a0 <i2c_write+0x16c>
    840c:	ebffff04 	bl	8024 <PUT32>
    8410:	e1a04007 	mov	r4, r7
    8414:	e1540005 	cmp	r4, r5
    8418:	3a000003 	bcc	842c <i2c_write+0xf8>
    841c:	e59f0070 	ldr	r0, [pc, #112]	; 8494 <i2c_write+0x160>
    8420:	ebffff01 	bl	802c <GET32>
    8424:	e3100002 	tst	r0, #2, 0
    8428:	1a000008 	bne	8450 <i2c_write+0x11c>
    842c:	e59f0060 	ldr	r0, [pc, #96]	; 8494 <i2c_write+0x160>
    8430:	ebfffefd 	bl	802c <GET32>
    8434:	e3100c03 	tst	r0, #768	; 0x300
    8438:	1affffeb 	bne	83ec <i2c_write+0xb8>
    843c:	e3100010 	tst	r0, #16, 0
    8440:	0afffff3 	beq	8414 <i2c_write+0xe0>
    8444:	e1540005 	cmp	r4, r5
    8448:	2afffff1 	bcs	8414 <i2c_write+0xe0>
    844c:	eaffffeb 	b	8400 <i2c_write+0xcc>
    8450:	e59f003c 	ldr	r0, [pc, #60]	; 8494 <i2c_write+0x160>
    8454:	ebfffef4 	bl	802c <GET32>
    8458:	e3100002 	tst	r0, #2, 0
    845c:	0afffffb 	beq	8450 <i2c_write+0x11c>
    8460:	e59f002c 	ldr	r0, [pc, #44]	; 8494 <i2c_write+0x160>
    8464:	ebfffef0 	bl	802c <GET32>
    8468:	e3100c03 	tst	r0, #768	; 0x300
    846c:	1a000001 	bne	8478 <i2c_write+0x144>
    8470:	e1a00005 	mov	r0, r5
    8474:	e8bd81f0 	pop	{r4, r5, r6, r7, r8, pc}
    8478:	e1a01000 	mov	r1, r0
    847c:	e59f0024 	ldr	r0, [pc, #36]	; 84a8 <i2c_write+0x174>
    8480:	eb0001c3 	bl	8b94 <printk>
    8484:	e3e00000 	mvn	r0, #0, 0
    8488:	e8bd81f0 	pop	{r4, r5, r6, r7, r8, pc}
    848c:	20804000 	.word	0x20804000
    8490:	00000302 	.word	0x00000302
    8494:	20804004 	.word	0x20804004
    8498:	2080400c 	.word	0x2080400c
    849c:	20804008 	.word	0x20804008
    84a0:	20804010 	.word	0x20804010
    84a4:	000097fc 	.word	0x000097fc
    84a8:	00009818 	.word	0x00009818

000084ac <i2c_read>:
    84ac:	e92d41f0 	push	{r4, r5, r6, r7, r8, lr}
    84b0:	e1a07000 	mov	r7, r0
    84b4:	e1a08001 	mov	r8, r1
    84b8:	e1a05002 	mov	r5, r2
    84bc:	e59f011c 	ldr	r0, [pc, #284]	; 85e0 <i2c_read+0x134>
    84c0:	ebfffed9 	bl	802c <GET32>
    84c4:	e2104001 	ands	r4, r0, #1, 0
    84c8:	1a000027 	bne	856c <i2c_read+0xc0>
    84cc:	e59f6110 	ldr	r6, [pc, #272]	; 85e4 <i2c_read+0x138>
    84d0:	e1a00006 	mov	r0, r6
    84d4:	ebfffed4 	bl	802c <GET32>
    84d8:	e3801020 	orr	r1, r0, #32, 0
    84dc:	e1a00006 	mov	r0, r6
    84e0:	ebfffecf 	bl	8024 <PUT32>
    84e4:	eb0002ee 	bl	90a4 <dev_barrier>
    84e8:	e59f10f8 	ldr	r1, [pc, #248]	; 85e8 <i2c_read+0x13c>
    84ec:	e59f00ec 	ldr	r0, [pc, #236]	; 85e0 <i2c_read+0x134>
    84f0:	ebfffecb 	bl	8024 <PUT32>
    84f4:	eb0002ea 	bl	90a4 <dev_barrier>
    84f8:	e1a01007 	mov	r1, r7
    84fc:	e59f00e8 	ldr	r0, [pc, #232]	; 85ec <i2c_read+0x140>
    8500:	ebfffec7 	bl	8024 <PUT32>
    8504:	eb0002e6 	bl	90a4 <dev_barrier>
    8508:	e1a01005 	mov	r1, r5
    850c:	e59f00dc 	ldr	r0, [pc, #220]	; 85f0 <i2c_read+0x144>
    8510:	ebfffec3 	bl	8024 <PUT32>
    8514:	eb0002e2 	bl	90a4 <dev_barrier>
    8518:	e1a00006 	mov	r0, r6
    851c:	ebfffec2 	bl	802c <GET32>
    8520:	e3801081 	orr	r1, r0, #129, 0	; 0x81
    8524:	e1a00006 	mov	r0, r6
    8528:	ebfffebd 	bl	8024 <PUT32>
    852c:	eb0002dc 	bl	90a4 <dev_barrier>
    8530:	e1540005 	cmp	r4, r5
    8534:	2a000015 	bcs	8590 <i2c_read+0xe4>
    8538:	e59f00a0 	ldr	r0, [pc, #160]	; 85e0 <i2c_read+0x134>
    853c:	ebfffeba 	bl	802c <GET32>
    8540:	e3100020 	tst	r0, #32, 0
    8544:	1a00000c 	bne	857c <i2c_read+0xd0>
    8548:	e59f0090 	ldr	r0, [pc, #144]	; 85e0 <i2c_read+0x134>
    854c:	ebfffeb6 	bl	802c <GET32>
    8550:	e3100c03 	tst	r0, #768	; 0x300
    8554:	0afffff7 	beq	8538 <i2c_read+0x8c>
    8558:	e1a01000 	mov	r1, r0
    855c:	e59f0090 	ldr	r0, [pc, #144]	; 85f4 <i2c_read+0x148>
    8560:	eb00018b 	bl	8b94 <printk>
    8564:	e3e00000 	mvn	r0, #0, 0
    8568:	e8bd81f0 	pop	{r4, r5, r6, r7, r8, pc}
    856c:	e59f0084 	ldr	r0, [pc, #132]	; 85f8 <i2c_read+0x14c>
    8570:	eb000187 	bl	8b94 <printk>
    8574:	e3e00000 	mvn	r0, #0, 0
    8578:	e8bd81f0 	pop	{r4, r5, r6, r7, r8, pc}
    857c:	e59f0078 	ldr	r0, [pc, #120]	; 85fc <i2c_read+0x150>
    8580:	ebfffea9 	bl	802c <GET32>
    8584:	e7c80004 	strb	r0, [r8, r4]
    8588:	e2844001 	add	r4, r4, #1, 0
    858c:	eaffffe7 	b	8530 <i2c_read+0x84>
    8590:	e59f0048 	ldr	r0, [pc, #72]	; 85e0 <i2c_read+0x134>
    8594:	ebfffea4 	bl	802c <GET32>
    8598:	e3100002 	tst	r0, #2, 0
    859c:	1a000006 	bne	85bc <i2c_read+0x110>
    85a0:	e3100c03 	tst	r0, #768	; 0x300
    85a4:	0afffff9 	beq	8590 <i2c_read+0xe4>
    85a8:	e1a01000 	mov	r1, r0
    85ac:	e59f004c 	ldr	r0, [pc, #76]	; 8600 <i2c_read+0x154>
    85b0:	eb000177 	bl	8b94 <printk>
    85b4:	e3e00000 	mvn	r0, #0, 0
    85b8:	e8bd81f0 	pop	{r4, r5, r6, r7, r8, pc}
    85bc:	e3100c03 	tst	r0, #768	; 0x300
    85c0:	1a000001 	bne	85cc <i2c_read+0x120>
    85c4:	e1a00005 	mov	r0, r5
    85c8:	e8bd81f0 	pop	{r4, r5, r6, r7, r8, pc}
    85cc:	e1a01000 	mov	r1, r0
    85d0:	e59f002c 	ldr	r0, [pc, #44]	; 8604 <i2c_read+0x158>
    85d4:	eb00016e 	bl	8b94 <printk>
    85d8:	e3e00000 	mvn	r0, #0, 0
    85dc:	e8bd81f0 	pop	{r4, r5, r6, r7, r8, pc}
    85e0:	20804004 	.word	0x20804004
    85e4:	20804000 	.word	0x20804000
    85e8:	00000302 	.word	0x00000302
    85ec:	2080400c 	.word	0x2080400c
    85f0:	20804008 	.word	0x20804008
    85f4:	00009850 	.word	0x00009850
    85f8:	00009834 	.word	0x00009834
    85fc:	20804010 	.word	0x20804010
    8600:	0000986c 	.word	0x0000986c
    8604:	00009894 	.word	0x00009894

00008608 <i2c_init_clk_div>:
    8608:	e92d4070 	push	{r4, r5, r6, lr}
    860c:	e1a04000 	mov	r4, r0
    8610:	e59f504c 	ldr	r5, [pc, #76]	; 8664 <i2c_init_clk_div+0x5c>
    8614:	e3a01000 	mov	r1, #0, 0
    8618:	e1a00005 	mov	r0, r5
    861c:	ebfffe80 	bl	8024 <PUT32>
    8620:	eb00029f 	bl	90a4 <dev_barrier>
    8624:	e59f103c 	ldr	r1, [pc, #60]	; 8668 <i2c_init_clk_div+0x60>
    8628:	e59f003c 	ldr	r0, [pc, #60]	; 866c <i2c_init_clk_div+0x64>
    862c:	ebfffe7c 	bl	8024 <PUT32>
    8630:	eb00029b 	bl	90a4 <dev_barrier>
    8634:	e1a01004 	mov	r1, r4
    8638:	e59f0030 	ldr	r0, [pc, #48]	; 8670 <i2c_init_clk_div+0x68>
    863c:	ebfffe78 	bl	8024 <PUT32>
    8640:	eb000297 	bl	90a4 <dev_barrier>
    8644:	e3a01902 	mov	r1, #32768	; 0x8000
    8648:	e1a00005 	mov	r0, r5
    864c:	ebfffe74 	bl	8024 <PUT32>
    8650:	eb000293 	bl	90a4 <dev_barrier>
    8654:	e1a01004 	mov	r1, r4
    8658:	e59f0014 	ldr	r0, [pc, #20]	; 8674 <i2c_init_clk_div+0x6c>
    865c:	eb00014c 	bl	8b94 <printk>
    8660:	e8bd8070 	pop	{r4, r5, r6, pc}
    8664:	20804000 	.word	0x20804000
    8668:	00000302 	.word	0x00000302
    866c:	20804004 	.word	0x20804004
    8670:	20804014 	.word	0x20804014
    8674:	000098b0 	.word	0x000098b0

00008678 <i2c_init_once>:
    8678:	e59f3020 	ldr	r3, [pc, #32]	; 86a0 <i2c_init_once+0x28>
    867c:	e5933000 	ldr	r3, [r3]
    8680:	e3530000 	cmp	r3, #0, 0
    8684:	112fff1e 	bxne	lr
    8688:	e92d4010 	push	{r4, lr}
    868c:	ebffff02 	bl	829c <i2c_init>
    8690:	e59f3008 	ldr	r3, [pc, #8]	; 86a0 <i2c_init_once+0x28>
    8694:	e3a02001 	mov	r2, #1, 0
    8698:	e5832000 	str	r2, [r3]
    869c:	e8bd8010 	pop	{r4, pc}
    86a0:	00009d08 	.word	0x00009d08

000086a4 <atecc608a_send_command>:
    86a4:	e92d40f0 	push	{r4, r5, r6, r7, lr}
    86a8:	e24dd084 	sub	sp, sp, #132, 0	; 0x84
    86ac:	e5ddc098 	ldrb	ip, [sp, #152]	; 0x98
    86b0:	e59d409c 	ldr	r4, [sp, #156]	; 0x9c
    86b4:	e59d50a0 	ldr	r5, [sp, #160]	; 0xa0
    86b8:	e28c6008 	add	r6, ip, #8, 0
    86bc:	e6ef6076 	uxtb	r6, r6
    86c0:	e5cd6040 	strb	r6, [sp, #64]	; 0x40
    86c4:	e5cd0041 	strb	r0, [sp, #65]	; 0x41
    86c8:	e5cd1042 	strb	r1, [sp, #66]	; 0x42
    86cc:	e5cd2043 	strb	r2, [sp, #67]	; 0x43
    86d0:	e1a02422 	lsr	r2, r2, #8
    86d4:	e5cd2044 	strb	r2, [sp, #68]	; 0x44
    86d8:	e25c2000 	subs	r2, ip, #0, 0
    86dc:	13a02001 	movne	r2, #1, 0
    86e0:	e3530000 	cmp	r3, #0, 0
    86e4:	03a02000 	moveq	r2, #0, 0
    86e8:	e3520000 	cmp	r2, #0, 0
    86ec:	1a000026 	bne	878c <atecc608a_send_command+0xe8>
    86f0:	e2463002 	sub	r3, r6, #2, 0
    86f4:	e28d2080 	add	r2, sp, #128, 0	; 0x80
    86f8:	e0823003 	add	r3, r2, r3
    86fc:	e3e02055 	mvn	r2, #85, 0	; 0x55
    8700:	e5432040 	strb	r2, [r3, #-64]	; 0xffffffc0
    8704:	e2463001 	sub	r3, r6, #1, 0
    8708:	e28d2080 	add	r2, sp, #128, 0	; 0x80
    870c:	e0823003 	add	r3, r2, r3
    8710:	e3e02044 	mvn	r2, #68, 0	; 0x44
    8714:	e5432040 	strb	r2, [r3, #-64]	; 0xffffffc0
    8718:	e1a02006 	mov	r2, r6
    871c:	e28d1040 	add	r1, sp, #64, 0	; 0x40
    8720:	e3a00060 	mov	r0, #96, 0	; 0x60
    8724:	ebffff02 	bl	8334 <i2c_write>
    8728:	e1560000 	cmp	r6, r0
    872c:	1a000021 	bne	87b8 <atecc608a_send_command+0x114>
    8730:	e3a00005 	mov	r0, #5, 0
    8734:	eb000283 	bl	9148 <delay_ms>
    8738:	e3a02001 	mov	r2, #1, 0
    873c:	e1a0100d 	mov	r1, sp
    8740:	e3a00060 	mov	r0, #96, 0	; 0x60
    8744:	ebffff58 	bl	84ac <i2c_read>
    8748:	e3500001 	cmp	r0, #1, 0
    874c:	1a00001d 	bne	87c8 <atecc608a_send_command+0x124>
    8750:	e5dd6000 	ldrb	r6, [sp]
    8754:	e3560001 	cmp	r6, #1, 0
    8758:	ca00001e 	bgt	87d8 <atecc608a_send_command+0x134>
    875c:	e2553000 	subs	r3, r5, #0, 0
    8760:	13a03001 	movne	r3, #1, 0
    8764:	e3540000 	cmp	r4, #0, 0
    8768:	03a03000 	moveq	r3, #0, 0
    876c:	e3530000 	cmp	r3, #0, 0
    8770:	0a00002c 	beq	8828 <atecc608a_send_command+0x184>
    8774:	e2466003 	sub	r6, r6, #3, 0
    8778:	e5d51000 	ldrb	r1, [r5]
    877c:	e1510006 	cmp	r1, r6
    8780:	a1a01006 	movge	r1, r6
    8784:	e3a03000 	mov	r3, #0, 0
    8788:	ea000023 	b	881c <atecc608a_send_command+0x178>
    878c:	e1a00003 	mov	r0, r3
    8790:	e3a03000 	mov	r3, #0, 0
    8794:	e15c0003 	cmp	ip, r3
    8798:	daffffd4 	ble	86f0 <atecc608a_send_command+0x4c>
    879c:	e2832005 	add	r2, r3, #5, 0
    87a0:	e7d01003 	ldrb	r1, [r0, r3]
    87a4:	e28de080 	add	lr, sp, #128, 0	; 0x80
    87a8:	e08e2002 	add	r2, lr, r2
    87ac:	e5421040 	strb	r1, [r2, #-64]	; 0xffffffc0
    87b0:	e2833001 	add	r3, r3, #1, 0
    87b4:	eafffff6 	b	8794 <atecc608a_send_command+0xf0>
    87b8:	e59f0090 	ldr	r0, [pc, #144]	; 8850 <atecc608a_send_command+0x1ac>
    87bc:	eb0000f4 	bl	8b94 <printk>
    87c0:	e3e00000 	mvn	r0, #0, 0
    87c4:	ea00001b 	b	8838 <atecc608a_send_command+0x194>
    87c8:	e59f0084 	ldr	r0, [pc, #132]	; 8854 <atecc608a_send_command+0x1b0>
    87cc:	eb0000f0 	bl	8b94 <printk>
    87d0:	e3e00000 	mvn	r0, #0, 0
    87d4:	ea000017 	b	8838 <atecc608a_send_command+0x194>
    87d8:	e2467001 	sub	r7, r6, #1, 0
    87dc:	e1a02007 	mov	r2, r7
    87e0:	e28d1001 	add	r1, sp, #1, 0
    87e4:	e3a00060 	mov	r0, #96, 0	; 0x60
    87e8:	ebffff2f 	bl	84ac <i2c_read>
    87ec:	e1570000 	cmp	r7, r0
    87f0:	0affffd9 	beq	875c <atecc608a_send_command+0xb8>
    87f4:	e59f005c 	ldr	r0, [pc, #92]	; 8858 <atecc608a_send_command+0x1b4>
    87f8:	eb0000e5 	bl	8b94 <printk>
    87fc:	e3e00000 	mvn	r0, #0, 0
    8800:	ea00000c 	b	8838 <atecc608a_send_command+0x194>
    8804:	e2832002 	add	r2, r3, #2, 0
    8808:	e28d0080 	add	r0, sp, #128, 0	; 0x80
    880c:	e0802002 	add	r2, r0, r2
    8810:	e5522080 	ldrb	r2, [r2, #-128]	; 0xffffff80
    8814:	e7c42003 	strb	r2, [r4, r3]
    8818:	e2833001 	add	r3, r3, #1, 0
    881c:	e1510003 	cmp	r1, r3
    8820:	cafffff7 	bgt	8804 <atecc608a_send_command+0x160>
    8824:	e5c51000 	strb	r1, [r5]
    8828:	e5dd1001 	ldrb	r1, [sp, #1]
    882c:	e3510000 	cmp	r1, #0, 0
    8830:	1a000002 	bne	8840 <atecc608a_send_command+0x19c>
    8834:	e3a00000 	mov	r0, #0, 0
    8838:	e28dd084 	add	sp, sp, #132, 0	; 0x84
    883c:	e8bd80f0 	pop	{r4, r5, r6, r7, pc}
    8840:	e59f0014 	ldr	r0, [pc, #20]	; 885c <atecc608a_send_command+0x1b8>
    8844:	eb0000d2 	bl	8b94 <printk>
    8848:	e3e00000 	mvn	r0, #0, 0
    884c:	eafffff9 	b	8838 <atecc608a_send_command+0x194>
    8850:	000098d8 	.word	0x000098d8
    8854:	00009900 	.word	0x00009900
    8858:	00009920 	.word	0x00009920
    885c:	00009944 	.word	0x00009944

00008860 <atecc608a_is_awake>:
    8860:	e52de004 	push	{lr}		; (str lr, [sp, #-4]!)
    8864:	e24dd00c 	sub	sp, sp, #12, 0
    8868:	e3a02004 	mov	r2, #4, 0
    886c:	e08d1002 	add	r1, sp, r2
    8870:	e3a00060 	mov	r0, #96, 0	; 0x60
    8874:	ebffff0c 	bl	84ac <i2c_read>
    8878:	e3500004 	cmp	r0, #4, 0
    887c:	0a000004 	beq	8894 <atecc608a_is_awake+0x34>
    8880:	e3500004 	cmp	r0, #4, 0
    8884:	0a00000a 	beq	88b4 <atecc608a_is_awake+0x54>
    8888:	e3a00000 	mov	r0, #0, 0
    888c:	e28dd00c 	add	sp, sp, #12, 0
    8890:	e49df004 	pop	{pc}		; (ldr pc, [sp], #4)
    8894:	e5dd3004 	ldrb	r3, [sp, #4]
    8898:	e3530004 	cmp	r3, #4, 0
    889c:	1afffff7 	bne	8880 <atecc608a_is_awake+0x20>
    88a0:	e5dd3005 	ldrb	r3, [sp, #5]
    88a4:	e3530011 	cmp	r3, #17, 0
    88a8:	1afffff4 	bne	8880 <atecc608a_is_awake+0x20>
    88ac:	e3a00001 	mov	r0, #1, 0
    88b0:	eafffff5 	b	888c <atecc608a_is_awake+0x2c>
    88b4:	e5dd3004 	ldrb	r3, [sp, #4]
    88b8:	e3530004 	cmp	r3, #4, 0
    88bc:	13a00000 	movne	r0, #0, 0
    88c0:	1afffff1 	bne	888c <atecc608a_is_awake+0x2c>
    88c4:	e5dd3005 	ldrb	r3, [sp, #5]
    88c8:	e35300ff 	cmp	r3, #255, 0	; 0xff
    88cc:	13530001 	cmpne	r3, #1, 0
    88d0:	03a00000 	moveq	r0, #0, 0
    88d4:	0affffec 	beq	888c <atecc608a_is_awake+0x2c>
    88d8:	e3a00001 	mov	r0, #1, 0
    88dc:	eaffffea 	b	888c <atecc608a_is_awake+0x2c>

000088e0 <atecc608a_wakeup>:
    88e0:	e92d4030 	push	{r4, r5, lr}
    88e4:	e24dd024 	sub	sp, sp, #36, 0	; 0x24
    88e8:	e59f410c 	ldr	r4, [pc, #268]	; 89fc <atecc608a_wakeup+0x11c>
    88ec:	e1a00004 	mov	r0, r4
    88f0:	ebfffdcd 	bl	802c <GET32>
    88f4:	e1a05000 	mov	r5, r0
    88f8:	e59f1100 	ldr	r1, [pc, #256]	; 8a00 <atecc608a_wakeup+0x120>
    88fc:	e1a00004 	mov	r0, r4
    8900:	ebfffdc7 	bl	8024 <PUT32>
    8904:	e3a00002 	mov	r0, #2, 0
    8908:	eb0002a9 	bl	93b4 <gpio_set_output>
    890c:	e3a01000 	mov	r1, #0, 0
    8910:	e3a00002 	mov	r0, #2, 0
    8914:	eb0002d2 	bl	9464 <gpio_write>
    8918:	e3a00050 	mov	r0, #80, 0	; 0x50
    891c:	eb000200 	bl	9124 <delay_us>
    8920:	e3a01001 	mov	r1, #1, 0
    8924:	e3a00002 	mov	r0, #2, 0
    8928:	eb0002cd 	bl	9464 <gpio_write>
    892c:	e3a00002 	mov	r0, #2, 0
    8930:	eb0002c7 	bl	9454 <gpio_set_input>
    8934:	e3a00002 	mov	r0, #2, 0
    8938:	eb000321 	bl	95c4 <gpio_set_pullup>
    893c:	e1a01005 	mov	r1, r5
    8940:	e1a00004 	mov	r0, r4
    8944:	ebfffdb6 	bl	8024 <PUT32>
    8948:	e3a00002 	mov	r0, #2, 0
    894c:	eb0001fd 	bl	9148 <delay_ms>
    8950:	e3a02004 	mov	r2, #4, 0
    8954:	e1a0100d 	mov	r1, sp
    8958:	e3a00060 	mov	r0, #96, 0	; 0x60
    895c:	ebfffed2 	bl	84ac <i2c_read>
    8960:	e3500000 	cmp	r0, #0, 0
    8964:	ba00000a 	blt	8994 <atecc608a_wakeup+0xb4>
    8968:	e5dd1000 	ldrb	r1, [sp]
    896c:	e59f0090 	ldr	r0, [pc, #144]	; 8a04 <atecc608a_wakeup+0x124>
    8970:	eb000087 	bl	8b94 <printk>
    8974:	e5dd2000 	ldrb	r2, [sp]
    8978:	e2423002 	sub	r3, r2, #2, 0
    897c:	e6ef3073 	uxtb	r3, r3
    8980:	e353001d 	cmp	r3, #29, 0
    8984:	9a000006 	bls	89a4 <atecc608a_wakeup+0xc4>
    8988:	e3a00000 	mov	r0, #0, 0
    898c:	e28dd024 	add	sp, sp, #36, 0	; 0x24
    8990:	e8bd8030 	pop	{r4, r5, pc}
    8994:	e59f006c 	ldr	r0, [pc, #108]	; 8a08 <atecc608a_wakeup+0x128>
    8998:	eb00007d 	bl	8b94 <printk>
    899c:	e3e00000 	mvn	r0, #0, 0
    89a0:	eafffff9 	b	898c <atecc608a_wakeup+0xac>
    89a4:	e2422001 	sub	r2, r2, #1, 0
    89a8:	e28d1001 	add	r1, sp, #1, 0
    89ac:	e3a00060 	mov	r0, #96, 0	; 0x60
    89b0:	ebfffebd 	bl	84ac <i2c_read>
    89b4:	e5dd1000 	ldrb	r1, [sp]
    89b8:	e59f004c 	ldr	r0, [pc, #76]	; 8a0c <atecc608a_wakeup+0x12c>
    89bc:	eb000074 	bl	8b94 <printk>
    89c0:	e3a04000 	mov	r4, #0, 0
    89c4:	ea000005 	b	89e0 <atecc608a_wakeup+0x100>
    89c8:	e28d3020 	add	r3, sp, #32, 0
    89cc:	e0833004 	add	r3, r3, r4
    89d0:	e5531020 	ldrb	r1, [r3, #-32]	; 0xffffffe0
    89d4:	e59f0034 	ldr	r0, [pc, #52]	; 8a10 <atecc608a_wakeup+0x130>
    89d8:	eb00006d 	bl	8b94 <printk>
    89dc:	e2844001 	add	r4, r4, #1, 0
    89e0:	e5dd3000 	ldrb	r3, [sp]
    89e4:	e1530004 	cmp	r3, r4
    89e8:	cafffff6 	bgt	89c8 <atecc608a_wakeup+0xe8>
    89ec:	e59f0020 	ldr	r0, [pc, #32]	; 8a14 <atecc608a_wakeup+0x134>
    89f0:	eb000067 	bl	8b94 <printk>
    89f4:	e3a00000 	mov	r0, #0, 0
    89f8:	eaffffe3 	b	898c <atecc608a_wakeup+0xac>
    89fc:	20804014 	.word	0x20804014
    8a00:	000005dc 	.word	0x000005dc
    8a04:	0000999c 	.word	0x0000999c
    8a08:	00009970 	.word	0x00009970
    8a0c:	000099b8 	.word	0x000099b8
    8a10:	000099d8 	.word	0x000099d8
    8a14:	00009b2c 	.word	0x00009b2c

00008a18 <atecc608a_sleep>:
    8a18:	e52de004 	push	{lr}		; (str lr, [sp, #-4]!)
    8a1c:	e24dd00c 	sub	sp, sp, #12, 0
    8a20:	e3a02001 	mov	r2, #1, 0
    8a24:	e5cd2007 	strb	r2, [sp, #7]
    8a28:	e28d1007 	add	r1, sp, #7, 0
    8a2c:	e3a00060 	mov	r0, #96, 0	; 0x60
    8a30:	ebfffe3f 	bl	8334 <i2c_write>
    8a34:	e28dd00c 	add	sp, sp, #12, 0
    8a38:	e49df004 	pop	{pc}		; (ldr pc, [sp], #4)

00008a3c <atecc608a_init>:
    8a3c:	e52de004 	push	{lr}		; (str lr, [sp, #-4]!)
    8a40:	e24dd024 	sub	sp, sp, #36, 0	; 0x24
    8a44:	ebfffe14 	bl	829c <i2c_init>
    8a48:	ebffffa4 	bl	88e0 <atecc608a_wakeup>
    8a4c:	e3500000 	cmp	r0, #0, 0
    8a50:	ba000015 	blt	8aac <atecc608a_init+0x70>
    8a54:	e3a01000 	mov	r1, #0, 0
    8a58:	e5cd101f 	strb	r1, [sp, #31]
    8a5c:	e3a03004 	mov	r3, #4, 0
    8a60:	e5cd3017 	strb	r3, [sp, #23]
    8a64:	e28d3017 	add	r3, sp, #23, 0
    8a68:	e58d3008 	str	r3, [sp, #8]
    8a6c:	e28d3018 	add	r3, sp, #24, 0
    8a70:	e58d3004 	str	r3, [sp, #4]
    8a74:	e3a03001 	mov	r3, #1, 0
    8a78:	e58d3000 	str	r3, [sp]
    8a7c:	e28d301f 	add	r3, sp, #31, 0
    8a80:	e1a02001 	mov	r2, r1
    8a84:	e3a00030 	mov	r0, #48, 0	; 0x30
    8a88:	ebffff05 	bl	86a4 <atecc608a_send_command>
    8a8c:	e3500000 	cmp	r0, #0, 0
    8a90:	ba000009 	blt	8abc <atecc608a_init+0x80>
    8a94:	e59f0030 	ldr	r0, [pc, #48]	; 8acc <atecc608a_init+0x90>
    8a98:	eb00003d 	bl	8b94 <printk>
    8a9c:	ebffffdd 	bl	8a18 <atecc608a_sleep>
    8aa0:	e3a00000 	mov	r0, #0, 0
    8aa4:	e28dd024 	add	sp, sp, #36, 0	; 0x24
    8aa8:	e49df004 	pop	{pc}		; (ldr pc, [sp], #4)
    8aac:	e59f001c 	ldr	r0, [pc, #28]	; 8ad0 <atecc608a_init+0x94>
    8ab0:	eb000037 	bl	8b94 <printk>
    8ab4:	e3e00000 	mvn	r0, #0, 0
    8ab8:	eafffff9 	b	8aa4 <atecc608a_init+0x68>
    8abc:	e59f0010 	ldr	r0, [pc, #16]	; 8ad4 <atecc608a_init+0x98>
    8ac0:	eb000033 	bl	8b94 <printk>
    8ac4:	e3e00000 	mvn	r0, #0, 0
    8ac8:	eafffff5 	b	8aa4 <atecc608a_init+0x68>
    8acc:	00009a1c 	.word	0x00009a1c
    8ad0:	000099e0 	.word	0x000099e0
    8ad4:	000099fc 	.word	0x000099fc

00008ad8 <atecc608a_random>:
    8ad8:	e92d4030 	push	{r4, r5, lr}
    8adc:	e24dd03c 	sub	sp, sp, #60, 0	; 0x3c
    8ae0:	e1a04000 	mov	r4, r0
    8ae4:	e3a03020 	mov	r3, #32, 0
    8ae8:	e5cd3017 	strb	r3, [sp, #23]
    8aec:	e28d3017 	add	r3, sp, #23, 0
    8af0:	e58d3008 	str	r3, [sp, #8]
    8af4:	e28d3018 	add	r3, sp, #24, 0
    8af8:	e58d3004 	str	r3, [sp, #4]
    8afc:	e3a01000 	mov	r1, #0, 0
    8b00:	e58d1000 	str	r1, [sp]
    8b04:	e1a03001 	mov	r3, r1
    8b08:	e1a02001 	mov	r2, r1
    8b0c:	e3a0001b 	mov	r0, #27, 0
    8b10:	ebfffee3 	bl	86a4 <atecc608a_send_command>
    8b14:	e1a05000 	mov	r5, r0
    8b18:	ebffffbe 	bl	8a18 <atecc608a_sleep>
    8b1c:	e3550000 	cmp	r5, #0, 0
    8b20:	ba00000b 	blt	8b54 <atecc608a_random+0x7c>
    8b24:	e3a03000 	mov	r3, #0, 0
    8b28:	ea000004 	b	8b40 <atecc608a_random+0x68>
    8b2c:	e28d2038 	add	r2, sp, #56, 0	; 0x38
    8b30:	e0822003 	add	r2, r2, r3
    8b34:	e5522020 	ldrb	r2, [r2, #-32]	; 0xffffffe0
    8b38:	e7c42003 	strb	r2, [r4, r3]
    8b3c:	e2833001 	add	r3, r3, #1, 0
    8b40:	e353001f 	cmp	r3, #31, 0
    8b44:	dafffff8 	ble	8b2c <atecc608a_random+0x54>
    8b48:	e3a00000 	mov	r0, #0, 0
    8b4c:	e28dd03c 	add	sp, sp, #60, 0	; 0x3c
    8b50:	e8bd8030 	pop	{r4, r5, pc}
    8b54:	e3e00000 	mvn	r0, #0, 0
    8b58:	eafffffb 	b	8b4c <atecc608a_random+0x74>

00008b5c <atecc608a_sign>:
    8b5c:	e92d4010 	push	{r4, lr}
    8b60:	e1a01000 	mov	r1, r0
    8b64:	e59f0008 	ldr	r0, [pc, #8]	; 8b74 <atecc608a_sign+0x18>
    8b68:	eb000009 	bl	8b94 <printk>
    8b6c:	e3e00000 	mvn	r0, #0, 0
    8b70:	e8bd8010 	pop	{r4, pc}
    8b74:	00009a40 	.word	0x00009a40

00008b78 <atecc608a_verify>:
    8b78:	e92d4010 	push	{r4, lr}
    8b7c:	e1a01000 	mov	r1, r0
    8b80:	e59f0008 	ldr	r0, [pc, #8]	; 8b90 <atecc608a_verify+0x18>
    8b84:	eb000002 	bl	8b94 <printk>
    8b88:	e3e00000 	mvn	r0, #0, 0
    8b8c:	e8bd8010 	pop	{r4, pc}
    8b90:	00009a70 	.word	0x00009a70

00008b94 <printk>:
    8b94:	e92d000f 	push	{r0, r1, r2, r3}
    8b98:	e52de004 	push	{lr}		; (str lr, [sp, #-4]!)
    8b9c:	e24dd00c 	sub	sp, sp, #12, 0
    8ba0:	e28d1014 	add	r1, sp, #20, 0
    8ba4:	e58d1004 	str	r1, [sp, #4]
    8ba8:	e59d0010 	ldr	r0, [sp, #16]
    8bac:	eb000047 	bl	8cd0 <vprintk>
    8bb0:	e28dd00c 	add	sp, sp, #12, 0
    8bb4:	e49de004 	pop	{lr}		; (ldr lr, [sp], #4)
    8bb8:	e28dd010 	add	sp, sp, #16, 0
    8bbc:	e12fff1e 	bx	lr

00008bc0 <emit_val>:
    8bc0:	e92d4010 	push	{r4, lr}
    8bc4:	e24dd030 	sub	sp, sp, #48, 0	; 0x30
    8bc8:	e350000a 	cmp	r0, #10, 0
    8bcc:	0a000014 	beq	8c24 <emit_val+0x64>
    8bd0:	e3500010 	cmp	r0, #16, 0
    8bd4:	0a000022 	beq	8c64 <emit_val+0xa4>
    8bd8:	e3500002 	cmp	r0, #2, 0
    8bdc:	0a000006 	beq	8bfc <emit_val+0x3c>
    8be0:	e58d0000 	str	r0, [sp]
    8be4:	e3a0301b 	mov	r3, #27, 0
    8be8:	e59f20c0 	ldr	r2, [pc, #192]	; 8cb0 <emit_val+0xf0>
    8bec:	e59f10c0 	ldr	r1, [pc, #192]	; 8cb4 <emit_val+0xf4>
    8bf0:	e59f00c0 	ldr	r0, [pc, #192]	; 8cb8 <emit_val+0xf8>
    8bf4:	ebffffe6 	bl	8b94 <printk>
    8bf8:	eb0000ee 	bl	8fb8 <clean_reboot>
    8bfc:	e28d400c 	add	r4, sp, #12, 0
    8c00:	e2012001 	and	r2, r1, #1, 0
    8c04:	e59f00b0 	ldr	r0, [pc, #176]	; 8cbc <emit_val+0xfc>
    8c08:	e7d02002 	ldrb	r2, [r0, r2]
    8c0c:	e5c42000 	strb	r2, [r4]
    8c10:	e2844001 	add	r4, r4, #1, 0
    8c14:	e3510001 	cmp	r1, #1, 0
    8c18:	e1a010a1 	lsr	r1, r1, #1
    8c1c:	8afffff7 	bhi	8c00 <emit_val+0x40>
    8c20:	ea00001d 	b	8c9c <emit_val+0xdc>
    8c24:	e28d400c 	add	r4, sp, #12, 0
    8c28:	e59f3090 	ldr	r3, [pc, #144]	; 8cc0 <emit_val+0x100>
    8c2c:	e0832193 	umull	r2, r3, r3, r1
    8c30:	e1a031a3 	lsr	r3, r3, #3
    8c34:	e1a00003 	mov	r0, r3
    8c38:	e0833103 	add	r3, r3, r3, lsl #2
    8c3c:	e0413083 	sub	r3, r1, r3, lsl #1
    8c40:	e59fc07c 	ldr	ip, [pc, #124]	; 8cc4 <emit_val+0x104>
    8c44:	e7dcc003 	ldrb	ip, [ip, r3]
    8c48:	e5c4c000 	strb	ip, [r4]
    8c4c:	e2844001 	add	r4, r4, #1, 0
    8c50:	e1a03001 	mov	r3, r1
    8c54:	e1a01000 	mov	r1, r0
    8c58:	e3530009 	cmp	r3, #9, 0
    8c5c:	8afffff1 	bhi	8c28 <emit_val+0x68>
    8c60:	ea00000d 	b	8c9c <emit_val+0xdc>
    8c64:	e28d400c 	add	r4, sp, #12, 0
    8c68:	e201200f 	and	r2, r1, #15, 0
    8c6c:	e59f0054 	ldr	r0, [pc, #84]	; 8cc8 <emit_val+0x108>
    8c70:	e7d02002 	ldrb	r2, [r0, r2]
    8c74:	e5c42000 	strb	r2, [r4]
    8c78:	e2844001 	add	r4, r4, #1, 0
    8c7c:	e351000f 	cmp	r1, #15, 0
    8c80:	e1a01221 	lsr	r1, r1, #4
    8c84:	8afffff7 	bhi	8c68 <emit_val+0xa8>
    8c88:	ea000003 	b	8c9c <emit_val+0xdc>
    8c8c:	e59f3038 	ldr	r3, [pc, #56]	; 8ccc <emit_val+0x10c>
    8c90:	e5933000 	ldr	r3, [r3]
    8c94:	e5740001 	ldrb	r0, [r4, #-1]!
    8c98:	e12fff33 	blx	r3
    8c9c:	e28d300c 	add	r3, sp, #12, 0
    8ca0:	e1540003 	cmp	r4, r3
    8ca4:	8afffff8 	bhi	8c8c <emit_val+0xcc>
    8ca8:	e28dd030 	add	sp, sp, #48, 0	; 0x30
    8cac:	e8bd8010 	pop	{r4, pc}
    8cb0:	00009b58 	.word	0x00009b58
    8cb4:	00009aa0 	.word	0x00009aa0
    8cb8:	00009ab0 	.word	0x00009ab0
    8cbc:	00009ad4 	.word	0x00009ad4
    8cc0:	cccccccd 	.word	0xcccccccd
    8cc4:	00009ad8 	.word	0x00009ad8
    8cc8:	00009ae4 	.word	0x00009ae4
    8ccc:	00009d04 	.word	0x00009d04

00008cd0 <vprintk>:
    8cd0:	e92d4030 	push	{r4, r5, lr}
    8cd4:	e24dd014 	sub	sp, sp, #20, 0
    8cd8:	e1a04000 	mov	r4, r0
    8cdc:	e58d100c 	str	r1, [sp, #12]
    8ce0:	ea000003 	b	8cf4 <vprintk+0x24>
    8ce4:	e59f3288 	ldr	r3, [pc, #648]	; 8f74 <vprintk+0x2a4>
    8ce8:	e5933000 	ldr	r3, [r3]
    8cec:	e12fff33 	blx	r3
    8cf0:	e2844001 	add	r4, r4, #1, 0
    8cf4:	e5d40000 	ldrb	r0, [r4]
    8cf8:	e3500000 	cmp	r0, #0, 0
    8cfc:	0a00009a 	beq	8f6c <vprintk+0x29c>
    8d00:	e3500025 	cmp	r0, #37, 0	; 0x25
    8d04:	1afffff6 	bne	8ce4 <vprintk+0x14>
    8d08:	e2845001 	add	r5, r4, #1, 0
    8d0c:	e5d42001 	ldrb	r2, [r4, #1]
    8d10:	e2423062 	sub	r3, r2, #98, 0	; 0x62
    8d14:	e3530016 	cmp	r3, #22, 0
    8d18:	979ff103 	ldrls	pc, [pc, r3, lsl #2]
    8d1c:	ea00008b 	b	8f50 <vprintk+0x280>
    8d20:	00008d7c 	.word	0x00008d7c
    8d24:	00008dbc 	.word	0x00008dbc
    8d28:	00008ed4 	.word	0x00008ed4
    8d2c:	00008f50 	.word	0x00008f50
    8d30:	00008f50 	.word	0x00008f50
    8d34:	00008f50 	.word	0x00008f50
    8d38:	00008f50 	.word	0x00008f50
    8d3c:	00008f50 	.word	0x00008f50
    8d40:	00008f50 	.word	0x00008f50
    8d44:	00008f50 	.word	0x00008f50
    8d48:	00008de0 	.word	0x00008de0
    8d4c:	00008f50 	.word	0x00008f50
    8d50:	00008f50 	.word	0x00008f50
    8d54:	00008f50 	.word	0x00008f50
    8d58:	00008e98 	.word	0x00008e98
    8d5c:	00008f50 	.word	0x00008f50
    8d60:	00008f50 	.word	0x00008f50
    8d64:	00008f18 	.word	0x00008f18
    8d68:	00008f50 	.word	0x00008f50
    8d6c:	00008d9c 	.word	0x00008d9c
    8d70:	00008f50 	.word	0x00008f50
    8d74:	00008f50 	.word	0x00008f50
    8d78:	00008e98 	.word	0x00008e98
    8d7c:	e59d300c 	ldr	r3, [sp, #12]
    8d80:	e2832004 	add	r2, r3, #4, 0
    8d84:	e58d200c 	str	r2, [sp, #12]
    8d88:	e5931000 	ldr	r1, [r3]
    8d8c:	e3a00002 	mov	r0, #2, 0
    8d90:	ebffff8a 	bl	8bc0 <emit_val>
    8d94:	e1a04005 	mov	r4, r5
    8d98:	eaffffd4 	b	8cf0 <vprintk+0x20>
    8d9c:	e59d300c 	ldr	r3, [sp, #12]
    8da0:	e2832004 	add	r2, r3, #4, 0
    8da4:	e58d200c 	str	r2, [sp, #12]
    8da8:	e5931000 	ldr	r1, [r3]
    8dac:	e3a0000a 	mov	r0, #10, 0
    8db0:	ebffff82 	bl	8bc0 <emit_val>
    8db4:	e1a04005 	mov	r4, r5
    8db8:	eaffffcc 	b	8cf0 <vprintk+0x20>
    8dbc:	e59f31b0 	ldr	r3, [pc, #432]	; 8f74 <vprintk+0x2a4>
    8dc0:	e5932000 	ldr	r2, [r3]
    8dc4:	e59d300c 	ldr	r3, [sp, #12]
    8dc8:	e2831004 	add	r1, r3, #4, 0
    8dcc:	e58d100c 	str	r1, [sp, #12]
    8dd0:	e5930000 	ldr	r0, [r3]
    8dd4:	e12fff32 	blx	r2
    8dd8:	e1a04005 	mov	r4, r5
    8ddc:	eaffffc3 	b	8cf0 <vprintk+0x20>
    8de0:	e2842002 	add	r2, r4, #2, 0
    8de4:	e5d43002 	ldrb	r3, [r4, #2]
    8de8:	e353006c 	cmp	r3, #108, 0	; 0x6c
    8dec:	1a000018 	bne	8e54 <vprintk+0x184>
    8df0:	e2845003 	add	r5, r4, #3, 0
    8df4:	e5d43003 	ldrb	r3, [r4, #3]
    8df8:	e3530078 	cmp	r3, #120, 0	; 0x78
    8dfc:	1a00001b 	bne	8e70 <vprintk+0x1a0>
    8e00:	e59f416c 	ldr	r4, [pc, #364]	; 8f74 <vprintk+0x2a4>
    8e04:	e5943000 	ldr	r3, [r4]
    8e08:	e3a00030 	mov	r0, #48, 0	; 0x30
    8e0c:	e12fff33 	blx	r3
    8e10:	e5943000 	ldr	r3, [r4]
    8e14:	e3a00078 	mov	r0, #120, 0	; 0x78
    8e18:	e12fff33 	blx	r3
    8e1c:	e59d300c 	ldr	r3, [sp, #12]
    8e20:	e2833007 	add	r3, r3, #7, 0
    8e24:	e3c33007 	bic	r3, r3, #7, 0
    8e28:	e2832008 	add	r2, r3, #8, 0
    8e2c:	e58d200c 	str	r2, [sp, #12]
    8e30:	e5934000 	ldr	r4, [r3]
    8e34:	e5931004 	ldr	r1, [r3, #4]
    8e38:	e3510000 	cmp	r1, #0, 0
    8e3c:	1a000012 	bne	8e8c <vprintk+0x1bc>
    8e40:	e1a01004 	mov	r1, r4
    8e44:	e3a00010 	mov	r0, #16, 0
    8e48:	ebffff5c 	bl	8bc0 <emit_val>
    8e4c:	e1a04005 	mov	r4, r5
    8e50:	eaffffa6 	b	8cf0 <vprintk+0x20>
    8e54:	e58d2000 	str	r2, [sp]
    8e58:	e3a0303b 	mov	r3, #59, 0	; 0x3b
    8e5c:	e59f2114 	ldr	r2, [pc, #276]	; 8f78 <vprintk+0x2a8>
    8e60:	e59f1114 	ldr	r1, [pc, #276]	; 8f7c <vprintk+0x2ac>
    8e64:	e59f0114 	ldr	r0, [pc, #276]	; 8f80 <vprintk+0x2b0>
    8e68:	ebffff49 	bl	8b94 <printk>
    8e6c:	eb000051 	bl	8fb8 <clean_reboot>
    8e70:	e58d5000 	str	r5, [sp]
    8e74:	e3a0303e 	mov	r3, #62, 0	; 0x3e
    8e78:	e59f20f8 	ldr	r2, [pc, #248]	; 8f78 <vprintk+0x2a8>
    8e7c:	e59f10f8 	ldr	r1, [pc, #248]	; 8f7c <vprintk+0x2ac>
    8e80:	e59f00f8 	ldr	r0, [pc, #248]	; 8f80 <vprintk+0x2b0>
    8e84:	ebffff42 	bl	8b94 <printk>
    8e88:	eb00004a 	bl	8fb8 <clean_reboot>
    8e8c:	e3a00010 	mov	r0, #16, 0
    8e90:	ebffff4a 	bl	8bc0 <emit_val>
    8e94:	eaffffe9 	b	8e40 <vprintk+0x170>
    8e98:	e59f40d4 	ldr	r4, [pc, #212]	; 8f74 <vprintk+0x2a4>
    8e9c:	e5943000 	ldr	r3, [r4]
    8ea0:	e3a00030 	mov	r0, #48, 0	; 0x30
    8ea4:	e12fff33 	blx	r3
    8ea8:	e5943000 	ldr	r3, [r4]
    8eac:	e3a00078 	mov	r0, #120, 0	; 0x78
    8eb0:	e12fff33 	blx	r3
    8eb4:	e59d300c 	ldr	r3, [sp, #12]
    8eb8:	e2832004 	add	r2, r3, #4, 0
    8ebc:	e58d200c 	str	r2, [sp, #12]
    8ec0:	e5931000 	ldr	r1, [r3]
    8ec4:	e3a00010 	mov	r0, #16, 0
    8ec8:	ebffff3c 	bl	8bc0 <emit_val>
    8ecc:	e1a04005 	mov	r4, r5
    8ed0:	eaffff86 	b	8cf0 <vprintk+0x20>
    8ed4:	e59d300c 	ldr	r3, [sp, #12]
    8ed8:	e2832004 	add	r2, r3, #4, 0
    8edc:	e58d200c 	str	r2, [sp, #12]
    8ee0:	e5934000 	ldr	r4, [r3]
    8ee4:	e3540000 	cmp	r4, #0, 0
    8ee8:	ba000004 	blt	8f00 <vprintk+0x230>
    8eec:	e1a01004 	mov	r1, r4
    8ef0:	e3a0000a 	mov	r0, #10, 0
    8ef4:	ebffff31 	bl	8bc0 <emit_val>
    8ef8:	e1a04005 	mov	r4, r5
    8efc:	eaffff7b 	b	8cf0 <vprintk+0x20>
    8f00:	e59f306c 	ldr	r3, [pc, #108]	; 8f74 <vprintk+0x2a4>
    8f04:	e5933000 	ldr	r3, [r3]
    8f08:	e3a0002d 	mov	r0, #45, 0	; 0x2d
    8f0c:	e12fff33 	blx	r3
    8f10:	e2644000 	rsb	r4, r4, #0, 0
    8f14:	eafffff4 	b	8eec <vprintk+0x21c>
    8f18:	e59d300c 	ldr	r3, [sp, #12]
    8f1c:	e2832004 	add	r2, r3, #4, 0
    8f20:	e58d200c 	str	r2, [sp, #12]
    8f24:	e5934000 	ldr	r4, [r3]
    8f28:	e5d40000 	ldrb	r0, [r4]
    8f2c:	e3500000 	cmp	r0, #0, 0
    8f30:	0a000004 	beq	8f48 <vprintk+0x278>
    8f34:	e59f3038 	ldr	r3, [pc, #56]	; 8f74 <vprintk+0x2a4>
    8f38:	e5933000 	ldr	r3, [r3]
    8f3c:	e12fff33 	blx	r3
    8f40:	e2844001 	add	r4, r4, #1, 0
    8f44:	eafffff7 	b	8f28 <vprintk+0x258>
    8f48:	e1a04005 	mov	r4, r5
    8f4c:	eaffff67 	b	8cf0 <vprintk+0x20>
    8f50:	e58d2000 	str	r2, [sp]
    8f54:	e3a03062 	mov	r3, #98, 0	; 0x62
    8f58:	e59f2018 	ldr	r2, [pc, #24]	; 8f78 <vprintk+0x2a8>
    8f5c:	e59f1018 	ldr	r1, [pc, #24]	; 8f7c <vprintk+0x2ac>
    8f60:	e59f001c 	ldr	r0, [pc, #28]	; 8f84 <vprintk+0x2b4>
    8f64:	ebffff0a 	bl	8b94 <printk>
    8f68:	eb000012 	bl	8fb8 <clean_reboot>
    8f6c:	e28dd014 	add	sp, sp, #20, 0
    8f70:	e8bd8030 	pop	{r4, r5, pc}
    8f74:	00009d04 	.word	0x00009d04
    8f78:	00009b64 	.word	0x00009b64
    8f7c:	00009aa0 	.word	0x00009aa0
    8f80:	00009af8 	.word	0x00009af8
    8f84:	00009b30 	.word	0x00009b30

00008f88 <default_putchar>:
    8f88:	e92d4010 	push	{r4, lr}
    8f8c:	e1a04000 	mov	r4, r0
    8f90:	e6ef0070 	uxtb	r0, r0
    8f94:	eb0000b3 	bl	9268 <uart_put8>
    8f98:	e1a00004 	mov	r0, r4
    8f9c:	e8bd8010 	pop	{r4, pc}

00008fa0 <rpi_putchar_set>:
    8fa0:	e59f300c 	ldr	r3, [pc, #12]	; 8fb4 <rpi_putchar_set+0x14>
    8fa4:	e5932000 	ldr	r2, [r3]
    8fa8:	e5830000 	str	r0, [r3]
    8fac:	e1a00002 	mov	r0, r2
    8fb0:	e12fff1e 	bx	lr
    8fb4:	00009d04 	.word	0x00009d04

00008fb8 <clean_reboot>:
    8fb8:	e92d4010 	push	{r4, lr}
    8fbc:	e59f0010 	ldr	r0, [pc, #16]	; 8fd4 <clean_reboot+0x1c>
    8fc0:	eb0001c5 	bl	96dc <putk>
    8fc4:	eb0000d0 	bl	930c <uart_flush_tx>
    8fc8:	e3a0000a 	mov	r0, #10, 0
    8fcc:	eb00005d 	bl	9148 <delay_ms>
    8fd0:	eb000039 	bl	90bc <rpi_reboot>
    8fd4:	00009b6c 	.word	0x00009b6c

00008fd8 <program_end>:
    8fd8:	e59f0000 	ldr	r0, [pc]	; 8fe0 <program_end+0x8>
    8fdc:	e12fff1e 	bx	lr
    8fe0:	00009d10 	.word	0x00009d10

00008fe4 <_cstart>:
    8fe4:	e92d4030 	push	{r4, r5, lr}
    8fe8:	e24dd00c 	sub	sp, sp, #12, 0
    8fec:	e59f3098 	ldr	r3, [pc, #152]	; 908c <_cstart+0xa8>
    8ff0:	e59f2098 	ldr	r2, [pc, #152]	; 9090 <_cstart+0xac>
    8ff4:	e1530002 	cmp	r3, r2
    8ff8:	33a02000 	movcc	r2, #0, 0
    8ffc:	34c32001 	strbcc	r2, [r3], #1
    9000:	3afffffa 	bcc	8ff0 <_cstart+0xc>
    9004:	eb00005b 	bl	9178 <uart_init>
    9008:	e3a03001 	mov	r3, #1, 0
    900c:	ee0f3f1c 	mcr	15, 0, r3, cr15, cr12, {0}
    9010:	e3a02a01 	mov	r2, #4096	; 0x1000
    9014:	e3a01000 	mov	r1, #0, 0
    9018:	e1a00001 	mov	r0, r1
    901c:	eb000186 	bl	963c <memset>
    9020:	e3a04000 	mov	r4, #0, 0
    9024:	e1a05004 	mov	r5, r4
    9028:	ea000005 	b	9044 <_cstart+0x60>
    902c:	e2855001 	add	r5, r5, #1, 0
    9030:	e5912000 	ldr	r2, [r1]
    9034:	e1a03005 	mov	r3, r5
    9038:	e59f0054 	ldr	r0, [pc, #84]	; 9094 <_cstart+0xb0>
    903c:	ebfffed4 	bl	8b94 <printk>
    9040:	e2844001 	add	r4, r4, #1, 0
    9044:	e3540b01 	cmp	r4, #1024	; 0x400
    9048:	2a000004 	bcs	9060 <_cstart+0x7c>
    904c:	e1a01104 	lsl	r1, r4, #2
    9050:	e5913000 	ldr	r3, [r1]
    9054:	e3530000 	cmp	r3, #0, 0
    9058:	0afffff8 	beq	9040 <_cstart+0x5c>
    905c:	eafffff2 	b	902c <_cstart+0x48>
    9060:	e3550000 	cmp	r5, #0, 0
    9064:	1a000001 	bne	9070 <_cstart+0x8c>
    9068:	ebfffbf2 	bl	8038 <notmain>
    906c:	ebffffd1 	bl	8fb8 <clean_reboot>
    9070:	e58d5000 	str	r5, [sp]
    9074:	e3a0301b 	mov	r3, #27, 0
    9078:	e59f2018 	ldr	r2, [pc, #24]	; 9098 <_cstart+0xb4>
    907c:	e59f1018 	ldr	r1, [pc, #24]	; 909c <_cstart+0xb8>
    9080:	e59f0018 	ldr	r0, [pc, #24]	; 90a0 <_cstart+0xbc>
    9084:	ebfffec2 	bl	8b94 <printk>
    9088:	ebffffca 	bl	8fb8 <clean_reboot>
    908c:	00009d08 	.word	0x00009d08
    9090:	00009d10 	.word	0x00009d10
    9094:	00009b78 	.word	0x00009b78
    9098:	00009c3c 	.word	0x00009c3c
    909c:	00009ba4 	.word	0x00009ba4
    90a0:	00009c0c 	.word	0x00009c0c

000090a4 <dev_barrier>:
    90a4:	ea000002 	b	90b4 <dsb>

000090a8 <dmb>:
    90a8:	e3a00000 	mov	r0, #0, 0
    90ac:	ee070fba 	mcr	15, 0, r0, cr7, cr10, {5}
    90b0:	e12fff1e 	bx	lr

000090b4 <dsb>:
    90b4:	ee070f9a 	mcr	15, 0, r0, cr7, cr10, {4}
    90b8:	e12fff1e 	bx	lr

000090bc <rpi_reboot>:
    90bc:	e92d4010 	push	{r4, lr}
    90c0:	e3a0000a 	mov	r0, #10, 0
    90c4:	eb00001f 	bl	9148 <delay_ms>
    90c8:	e59f1014 	ldr	r1, [pc, #20]	; 90e4 <rpi_reboot+0x28>
    90cc:	e59f0014 	ldr	r0, [pc, #20]	; 90e8 <rpi_reboot+0x2c>
    90d0:	ebfffbd3 	bl	8024 <PUT32>
    90d4:	e59f1010 	ldr	r1, [pc, #16]	; 90ec <rpi_reboot+0x30>
    90d8:	e59f0010 	ldr	r0, [pc, #16]	; 90f0 <rpi_reboot+0x34>
    90dc:	ebfffbd0 	bl	8024 <PUT32>
    90e0:	eafffffe 	b	90e0 <rpi_reboot+0x24>
    90e4:	5a000001 	.word	0x5a000001
    90e8:	20100024 	.word	0x20100024
    90ec:	5a000020 	.word	0x5a000020
    90f0:	2010001c 	.word	0x2010001c

000090f4 <timer_get_usec_raw>:
    90f4:	e92d4010 	push	{r4, lr}
    90f8:	e59f0004 	ldr	r0, [pc, #4]	; 9104 <timer_get_usec_raw+0x10>
    90fc:	ebfffbca 	bl	802c <GET32>
    9100:	e8bd8010 	pop	{r4, pc}
    9104:	20003004 	.word	0x20003004

00009108 <timer_get_usec>:
    9108:	e92d4010 	push	{r4, lr}
    910c:	ebffffe4 	bl	90a4 <dev_barrier>
    9110:	ebfffff7 	bl	90f4 <timer_get_usec_raw>
    9114:	e1a04000 	mov	r4, r0
    9118:	ebffffe1 	bl	90a4 <dev_barrier>
    911c:	e1a00004 	mov	r0, r4
    9120:	e8bd8010 	pop	{r4, pc}

00009124 <delay_us>:
    9124:	e92d4070 	push	{r4, r5, r6, lr}
    9128:	e1a05000 	mov	r5, r0
    912c:	ebfffff5 	bl	9108 <timer_get_usec>
    9130:	e1a04000 	mov	r4, r0
    9134:	ebfffff3 	bl	9108 <timer_get_usec>
    9138:	e0400004 	sub	r0, r0, r4
    913c:	e1500005 	cmp	r0, r5
    9140:	3afffffb 	bcc	9134 <delay_us+0x10>
    9144:	e8bd8070 	pop	{r4, r5, r6, pc}

00009148 <delay_ms>:
    9148:	e92d4010 	push	{r4, lr}
    914c:	e0603280 	rsb	r3, r0, r0, lsl #5
    9150:	e0800103 	add	r0, r0, r3, lsl #2
    9154:	e1a00180 	lsl	r0, r0, #3
    9158:	ebfffff1 	bl	9124 <delay_us>
    915c:	e8bd8010 	pop	{r4, pc}

00009160 <delay_sec>:
    9160:	e92d4010 	push	{r4, lr}
    9164:	e0603280 	rsb	r3, r0, r0, lsl #5
    9168:	e0800103 	add	r0, r0, r3, lsl #2
    916c:	e1a00180 	lsl	r0, r0, #3
    9170:	ebfffff4 	bl	9148 <delay_ms>
    9174:	e8bd8010 	pop	{r4, pc}

00009178 <uart_init>:
    9178:	e92d4070 	push	{r4, r5, r6, lr}
    917c:	e3a01002 	mov	r1, #2, 0
    9180:	e3a0000e 	mov	r0, #14, 0
    9184:	eb000070 	bl	934c <gpio_set_function>
    9188:	e3a01002 	mov	r1, #2, 0
    918c:	e3a0000f 	mov	r0, #15, 0
    9190:	eb00006d 	bl	934c <gpio_set_function>
    9194:	ebffffc2 	bl	90a4 <dev_barrier>
    9198:	e59f4094 	ldr	r4, [pc, #148]	; 9234 <uart_init+0xbc>
    919c:	e1a00004 	mov	r0, r4
    91a0:	ebfffba1 	bl	802c <GET32>
    91a4:	e3801001 	orr	r1, r0, #1, 0
    91a8:	e1a00004 	mov	r0, r4
    91ac:	ebfffb9c 	bl	8024 <PUT32>
    91b0:	ebffffbb 	bl	90a4 <dev_barrier>
    91b4:	e284405c 	add	r4, r4, #92, 0	; 0x5c
    91b8:	e1a00004 	mov	r0, r4
    91bc:	ebfffb9a 	bl	802c <GET32>
    91c0:	e3c01007 	bic	r1, r0, #7, 0
    91c4:	e1a00004 	mov	r0, r4
    91c8:	ebfffb95 	bl	8024 <PUT32>
    91cc:	ebffffb4 	bl	90a4 <dev_barrier>
    91d0:	e3a01006 	mov	r1, #6, 0
    91d4:	e59f005c 	ldr	r0, [pc, #92]	; 9238 <uart_init+0xc0>
    91d8:	ebfffb91 	bl	8024 <PUT32>
    91dc:	ebffffb0 	bl	90a4 <dev_barrier>
    91e0:	e59f5054 	ldr	r5, [pc, #84]	; 923c <uart_init+0xc4>
    91e4:	e1a00005 	mov	r0, r5
    91e8:	ebfffb8f 	bl	802c <GET32>
    91ec:	e3c01003 	bic	r1, r0, #3, 0
    91f0:	e1a00005 	mov	r0, r5
    91f4:	ebfffb8a 	bl	8024 <PUT32>
    91f8:	ebffffa9 	bl	90a4 <dev_barrier>
    91fc:	e3a01003 	mov	r1, #3, 0
    9200:	e59f0038 	ldr	r0, [pc, #56]	; 9240 <uart_init+0xc8>
    9204:	ebfffb86 	bl	8024 <PUT32>
    9208:	ebffffa5 	bl	90a4 <dev_barrier>
    920c:	e59f1030 	ldr	r1, [pc, #48]	; 9244 <uart_init+0xcc>
    9210:	e59f0030 	ldr	r0, [pc, #48]	; 9248 <uart_init+0xd0>
    9214:	ebfffb82 	bl	8024 <PUT32>
    9218:	ebffffa1 	bl	90a4 <dev_barrier>
    921c:	e1a00004 	mov	r0, r4
    9220:	ebfffb81 	bl	802c <GET32>
    9224:	e3801003 	orr	r1, r0, #3, 0
    9228:	e1a00004 	mov	r0, r4
    922c:	ebfffb7c 	bl	8024 <PUT32>
    9230:	e8bd8070 	pop	{r4, r5, r6, pc}
    9234:	20215004 	.word	0x20215004
    9238:	20215048 	.word	0x20215048
    923c:	20215044 	.word	0x20215044
    9240:	2021504c 	.word	0x2021504c
    9244:	0000010e 	.word	0x0000010e
    9248:	20215068 	.word	0x20215068

0000924c <uart_can_put8>:
    924c:	e92d4010 	push	{r4, lr}
    9250:	e59f000c 	ldr	r0, [pc, #12]	; 9264 <uart_can_put8+0x18>
    9254:	ebfffb74 	bl	802c <GET32>
    9258:	e1a002a0 	lsr	r0, r0, #5
    925c:	e2000001 	and	r0, r0, #1, 0
    9260:	e8bd8010 	pop	{r4, pc}
    9264:	20215054 	.word	0x20215054

00009268 <uart_put8>:
    9268:	e92d4010 	push	{r4, lr}
    926c:	e1a04000 	mov	r4, r0
    9270:	ebfffff5 	bl	924c <uart_can_put8>
    9274:	e3500000 	cmp	r0, #0, 0
    9278:	0afffffc 	beq	9270 <uart_put8+0x8>
    927c:	e1a01004 	mov	r1, r4
    9280:	e59f0008 	ldr	r0, [pc, #8]	; 9290 <uart_put8+0x28>
    9284:	ebfffb66 	bl	8024 <PUT32>
    9288:	e3a00001 	mov	r0, #1, 0
    928c:	e8bd8010 	pop	{r4, pc}
    9290:	20215040 	.word	0x20215040

00009294 <uart_has_data>:
    9294:	e92d4010 	push	{r4, lr}
    9298:	e59f0008 	ldr	r0, [pc, #8]	; 92a8 <uart_has_data+0x14>
    929c:	ebfffb62 	bl	802c <GET32>
    92a0:	e2000001 	and	r0, r0, #1, 0
    92a4:	e8bd8010 	pop	{r4, pc}
    92a8:	20215054 	.word	0x20215054

000092ac <uart_get8>:
    92ac:	e92d4010 	push	{r4, lr}
    92b0:	ebfffff7 	bl	9294 <uart_has_data>
    92b4:	e3500000 	cmp	r0, #0, 0
    92b8:	0afffffc 	beq	92b0 <uart_get8+0x4>
    92bc:	e59f0008 	ldr	r0, [pc, #8]	; 92cc <uart_get8+0x20>
    92c0:	ebfffb59 	bl	802c <GET32>
    92c4:	e6ef0070 	uxtb	r0, r0
    92c8:	e8bd8010 	pop	{r4, pc}
    92cc:	20215040 	.word	0x20215040

000092d0 <uart_get8_async>:
    92d0:	e92d4010 	push	{r4, lr}
    92d4:	ebffffee 	bl	9294 <uart_has_data>
    92d8:	e3500000 	cmp	r0, #0, 0
    92dc:	0a000001 	beq	92e8 <uart_get8_async+0x18>
    92e0:	ebfffff1 	bl	92ac <uart_get8>
    92e4:	e8bd8010 	pop	{r4, pc}
    92e8:	e3e00000 	mvn	r0, #0, 0
    92ec:	e8bd8010 	pop	{r4, pc}

000092f0 <uart_tx_is_empty>:
    92f0:	e92d4010 	push	{r4, lr}
    92f4:	e59f000c 	ldr	r0, [pc, #12]	; 9308 <uart_tx_is_empty+0x18>
    92f8:	ebfffb4b 	bl	802c <GET32>
    92fc:	e1a00320 	lsr	r0, r0, #6
    9300:	e2000001 	and	r0, r0, #1, 0
    9304:	e8bd8010 	pop	{r4, pc}
    9308:	20215054 	.word	0x20215054

0000930c <uart_flush_tx>:
    930c:	e92d4010 	push	{r4, lr}
    9310:	ebfffff6 	bl	92f0 <uart_tx_is_empty>
    9314:	e3500000 	cmp	r0, #0, 0
    9318:	18bd8010 	popne	{r4, pc}
    931c:	eb0000fb 	bl	9710 <rpi_wait>
    9320:	eafffffa 	b	9310 <uart_flush_tx+0x4>

00009324 <uart_disable>:
    9324:	e92d4010 	push	{r4, lr}
    9328:	ebfffff7 	bl	930c <uart_flush_tx>
    932c:	e59f4014 	ldr	r4, [pc, #20]	; 9348 <uart_disable+0x24>
    9330:	e1a00004 	mov	r0, r4
    9334:	ebfffb3c 	bl	802c <GET32>
    9338:	e3c01001 	bic	r1, r0, #1, 0
    933c:	e1a00004 	mov	r0, r4
    9340:	ebfffb37 	bl	8024 <PUT32>
    9344:	e8bd8010 	pop	{r4, pc}
    9348:	20215004 	.word	0x20215004

0000934c <gpio_set_function>:
    934c:	e350002f 	cmp	r0, #47, 0	; 0x2f
    9350:	1350001f 	cmpne	r0, #31, 0
    9354:	812fff1e 	bxhi	lr
    9358:	e92d4070 	push	{r4, r5, r6, lr}
    935c:	e1a05001 	mov	r5, r1
    9360:	e3d13007 	bics	r3, r1, #7, 0
    9364:	18bd8070 	popne	{r4, r5, r6, pc}
    9368:	e59f3040 	ldr	r3, [pc, #64]	; 93b0 <gpio_set_function+0x64>
    936c:	e0832093 	umull	r2, r3, r3, r0
    9370:	e1a031a3 	lsr	r3, r3, #3
    9374:	e1a02003 	mov	r2, r3
    9378:	e0833103 	add	r3, r3, r3, lsl #2
    937c:	e0403083 	sub	r3, r0, r3, lsl #1
    9380:	e0834083 	add	r4, r3, r3, lsl #1
    9384:	e2820302 	add	r0, r2, #134217728	; 0x8000000
    9388:	e2800702 	add	r0, r0, #524288	; 0x80000
    938c:	e1a06100 	lsl	r6, r0, #2
    9390:	e1a00006 	mov	r0, r6
    9394:	ebfffb24 	bl	802c <GET32>
    9398:	e3a01007 	mov	r1, #7, 0
    939c:	e1c01411 	bic	r1, r0, r1, lsl r4
    93a0:	e1811415 	orr	r1, r1, r5, lsl r4
    93a4:	e1a00006 	mov	r0, r6
    93a8:	ebfffb1d 	bl	8024 <PUT32>
    93ac:	e8bd8070 	pop	{r4, r5, r6, pc}
    93b0:	cccccccd 	.word	0xcccccccd

000093b4 <gpio_set_output>:
    93b4:	e92d4010 	push	{r4, lr}
    93b8:	e3a01001 	mov	r1, #1, 0
    93bc:	ebffffe2 	bl	934c <gpio_set_function>
    93c0:	e8bd8010 	pop	{r4, pc}

000093c4 <gpio_set_on>:
    93c4:	e92d4010 	push	{r4, lr}
    93c8:	e350002f 	cmp	r0, #47, 0	; 0x2f
    93cc:	0a000006 	beq	93ec <gpio_set_on+0x28>
    93d0:	e350001f 	cmp	r0, #31, 0
    93d4:	88bd8010 	pophi	{r4, pc}
    93d8:	e3a01001 	mov	r1, #1, 0
    93dc:	e1a01011 	lsl	r1, r1, r0
    93e0:	e59f001c 	ldr	r0, [pc, #28]	; 9404 <gpio_set_on+0x40>
    93e4:	ebfffb0e 	bl	8024 <PUT32>
    93e8:	e8bd8010 	pop	{r4, pc}
    93ec:	e200001f 	and	r0, r0, #31, 0
    93f0:	e3a01001 	mov	r1, #1, 0
    93f4:	e1a01011 	lsl	r1, r1, r0
    93f8:	e59f0008 	ldr	r0, [pc, #8]	; 9408 <gpio_set_on+0x44>
    93fc:	ebfffb08 	bl	8024 <PUT32>
    9400:	e8bd8010 	pop	{r4, pc}
    9404:	2020001c 	.word	0x2020001c
    9408:	20200020 	.word	0x20200020

0000940c <gpio_set_off>:
    940c:	e92d4010 	push	{r4, lr}
    9410:	e350002f 	cmp	r0, #47, 0	; 0x2f
    9414:	0a000006 	beq	9434 <gpio_set_off+0x28>
    9418:	e350001f 	cmp	r0, #31, 0
    941c:	88bd8010 	pophi	{r4, pc}
    9420:	e3a01001 	mov	r1, #1, 0
    9424:	e1a01011 	lsl	r1, r1, r0
    9428:	e59f001c 	ldr	r0, [pc, #28]	; 944c <gpio_set_off+0x40>
    942c:	ebfffafc 	bl	8024 <PUT32>
    9430:	e8bd8010 	pop	{r4, pc}
    9434:	e200001f 	and	r0, r0, #31, 0
    9438:	e3a01001 	mov	r1, #1, 0
    943c:	e1a01011 	lsl	r1, r1, r0
    9440:	e59f0008 	ldr	r0, [pc, #8]	; 9450 <gpio_set_off+0x44>
    9444:	ebfffaf6 	bl	8024 <PUT32>
    9448:	e8bd8010 	pop	{r4, pc}
    944c:	20200028 	.word	0x20200028
    9450:	2020002c 	.word	0x2020002c

00009454 <gpio_set_input>:
    9454:	e92d4010 	push	{r4, lr}
    9458:	e3a01000 	mov	r1, #0, 0
    945c:	ebffffba 	bl	934c <gpio_set_function>
    9460:	e8bd8010 	pop	{r4, pc}

00009464 <gpio_write>:
    9464:	e92d4010 	push	{r4, lr}
    9468:	e3510000 	cmp	r1, #0, 0
    946c:	0a000001 	beq	9478 <gpio_write+0x14>
    9470:	ebffffd3 	bl	93c4 <gpio_set_on>
    9474:	e8bd8010 	pop	{r4, pc}
    9478:	ebffffe3 	bl	940c <gpio_set_off>
    947c:	e8bd8010 	pop	{r4, pc}

00009480 <gpio_read>:
    9480:	e350001f 	cmp	r0, #31, 0
    9484:	8a000006 	bhi	94a4 <gpio_read+0x24>
    9488:	e92d4010 	push	{r4, lr}
    948c:	e1a04000 	mov	r4, r0
    9490:	e59f0014 	ldr	r0, [pc, #20]	; 94ac <gpio_read+0x2c>
    9494:	ebfffae4 	bl	802c <GET32>
    9498:	e1a00430 	lsr	r0, r0, r4
    949c:	e2000001 	and	r0, r0, #1, 0
    94a0:	e8bd8010 	pop	{r4, pc}
    94a4:	e3e00000 	mvn	r0, #0, 0
    94a8:	e12fff1e 	bx	lr
    94ac:	20200034 	.word	0x20200034

000094b0 <using_staff_gpio>:
    94b0:	e12fff1e 	bx	lr

000094b4 <gpio_set_pud>:
    94b4:	e92d4070 	push	{r4, r5, r6, lr}
    94b8:	e24dd008 	sub	sp, sp, #8, 0
    94bc:	e350001f 	cmp	r0, #31, 0
    94c0:	8a000020 	bhi	9548 <gpio_set_pud+0x94>
    94c4:	e1a05000 	mov	r5, r0
    94c8:	e1a04001 	mov	r4, r1
    94cc:	e3510003 	cmp	r1, #3, 0
    94d0:	8a000024 	bhi	9568 <gpio_set_pud+0xb4>
    94d4:	e3510002 	cmp	r1, #2, 0
    94d8:	8a00002a 	bhi	9588 <gpio_set_pud+0xd4>
    94dc:	ebfffef0 	bl	90a4 <dev_barrier>
    94e0:	e59f60b8 	ldr	r6, [pc, #184]	; 95a0 <gpio_set_pud+0xec>
    94e4:	e1a01004 	mov	r1, r4
    94e8:	e1a00006 	mov	r0, r6
    94ec:	ebfffacc 	bl	8024 <PUT32>
    94f0:	e3a00096 	mov	r0, #150, 0	; 0x96
    94f4:	ebffff0a 	bl	9124 <delay_us>
    94f8:	e59f40a4 	ldr	r4, [pc, #164]	; 95a4 <gpio_set_pud+0xf0>
    94fc:	e3a01001 	mov	r1, #1, 0
    9500:	e1a01511 	lsl	r1, r1, r5
    9504:	e1a00004 	mov	r0, r4
    9508:	ebfffac5 	bl	8024 <PUT32>
    950c:	e3a00096 	mov	r0, #150, 0	; 0x96
    9510:	ebffff03 	bl	9124 <delay_us>
    9514:	e3a01000 	mov	r1, #0, 0
    9518:	e1a00006 	mov	r0, r6
    951c:	ebfffac0 	bl	8024 <PUT32>
    9520:	e3a00096 	mov	r0, #150, 0	; 0x96
    9524:	ebfffefe 	bl	9124 <delay_us>
    9528:	e3a01000 	mov	r1, #0, 0
    952c:	e1a00004 	mov	r0, r4
    9530:	ebfffabb 	bl	8024 <PUT32>
    9534:	e3a00096 	mov	r0, #150, 0	; 0x96
    9538:	ebfffef9 	bl	9124 <delay_us>
    953c:	ebfffed8 	bl	90a4 <dev_barrier>
    9540:	e28dd008 	add	sp, sp, #8, 0
    9544:	e8bd8070 	pop	{r4, r5, r6, pc}
    9548:	e59f3058 	ldr	r3, [pc, #88]	; 95a8 <gpio_set_pud+0xf4>
    954c:	e58d3000 	str	r3, [sp]
    9550:	e3a03012 	mov	r3, #18, 0
    9554:	e59f2050 	ldr	r2, [pc, #80]	; 95ac <gpio_set_pud+0xf8>
    9558:	e59f1050 	ldr	r1, [pc, #80]	; 95b0 <gpio_set_pud+0xfc>
    955c:	e59f0050 	ldr	r0, [pc, #80]	; 95b4 <gpio_set_pud+0x100>
    9560:	ebfffd8b 	bl	8b94 <printk>
    9564:	ebfffe93 	bl	8fb8 <clean_reboot>
    9568:	e59f3048 	ldr	r3, [pc, #72]	; 95b8 <gpio_set_pud+0x104>
    956c:	e58d3000 	str	r3, [sp]
    9570:	e3a03013 	mov	r3, #19, 0
    9574:	e59f2030 	ldr	r2, [pc, #48]	; 95ac <gpio_set_pud+0xf8>
    9578:	e59f1030 	ldr	r1, [pc, #48]	; 95b0 <gpio_set_pud+0xfc>
    957c:	e59f0038 	ldr	r0, [pc, #56]	; 95bc <gpio_set_pud+0x108>
    9580:	ebfffd83 	bl	8b94 <printk>
    9584:	ebfffe8b 	bl	8fb8 <clean_reboot>
    9588:	e3a03018 	mov	r3, #24, 0
    958c:	e59f2018 	ldr	r2, [pc, #24]	; 95ac <gpio_set_pud+0xf8>
    9590:	e59f1018 	ldr	r1, [pc, #24]	; 95b0 <gpio_set_pud+0xfc>
    9594:	e59f0024 	ldr	r0, [pc, #36]	; 95c0 <gpio_set_pud+0x10c>
    9598:	ebfffd7d 	bl	8b94 <printk>
    959c:	ebfffe85 	bl	8fb8 <clean_reboot>
    95a0:	20200094 	.word	0x20200094
    95a4:	20200098 	.word	0x20200098
    95a8:	00009c90 	.word	0x00009c90
    95ac:	00009cf4 	.word	0x00009cf4
    95b0:	00009c4c 	.word	0x00009c4c
    95b4:	00009c58 	.word	0x00009c58
    95b8:	00009cd4 	.word	0x00009cd4
    95bc:	00009c9c 	.word	0x00009c9c
    95c0:	00009cdc 	.word	0x00009cdc

000095c4 <gpio_set_pullup>:
    95c4:	e92d4010 	push	{r4, lr}
    95c8:	e3a01002 	mov	r1, #2, 0
    95cc:	ebffffb8 	bl	94b4 <gpio_set_pud>
    95d0:	e8bd8010 	pop	{r4, pc}

000095d4 <gpio_set_pulldown>:
    95d4:	e92d4010 	push	{r4, lr}
    95d8:	e3a01001 	mov	r1, #1, 0
    95dc:	ebffffb4 	bl	94b4 <gpio_set_pud>
    95e0:	e8bd8010 	pop	{r4, pc}

000095e4 <gpio_pud_off>:
    95e4:	e92d4010 	push	{r4, lr}
    95e8:	e3a01000 	mov	r1, #0, 0
    95ec:	ebffffb0 	bl	94b4 <gpio_set_pud>
    95f0:	e8bd8010 	pop	{r4, pc}

000095f4 <gpio_get_pud>:
    95f4:	e92d4010 	push	{r4, lr}
    95f8:	e59f0008 	ldr	r0, [pc, #8]	; 9608 <gpio_get_pud+0x14>
    95fc:	ebfffa8a 	bl	802c <GET32>
    9600:	e2000003 	and	r0, r0, #3, 0
    9604:	e8bd8010 	pop	{r4, pc}
    9608:	20200094 	.word	0x20200094

0000960c <gpio_is_pullup>:
    960c:	e92d4010 	push	{r4, lr}
    9610:	ebfffff7 	bl	95f4 <gpio_get_pud>
    9614:	e3500002 	cmp	r0, #2, 0
    9618:	13a00000 	movne	r0, #0, 0
    961c:	03a00001 	moveq	r0, #1, 0
    9620:	e8bd8010 	pop	{r4, pc}

00009624 <gpio_is_pulldown>:
    9624:	e92d4010 	push	{r4, lr}
    9628:	ebfffff1 	bl	95f4 <gpio_get_pud>
    962c:	e3500001 	cmp	r0, #1, 0
    9630:	13a00000 	movne	r0, #0, 0
    9634:	03a00001 	moveq	r0, #1, 0
    9638:	e8bd8010 	pop	{r4, pc}

0000963c <memset>:
    963c:	e3520000 	cmp	r2, #0, 0
    9640:	012fff1e 	bxeq	lr
    9644:	e3510000 	cmp	r1, #0, 0
    9648:	1a000007 	bne	966c <memset+0x30>
    964c:	e3100007 	tst	r0, #7, 0
    9650:	1a000001 	bne	965c <memset+0x20>
    9654:	e3120007 	tst	r2, #7, 0
    9658:	0a000011 	beq	96a4 <memset+0x68>
    965c:	e3100003 	tst	r0, #3, 0
    9660:	1a000001 	bne	966c <memset+0x30>
    9664:	e3120003 	tst	r2, #3, 0
    9668:	0a000001 	beq	9674 <memset+0x38>
    966c:	e0802002 	add	r2, r0, r2
    9670:	ea000008 	b	9698 <memset+0x5c>
    9674:	e1a02122 	lsr	r2, r2, #2
    9678:	ea000001 	b	9684 <memset+0x48>
    967c:	e4801004 	str	r1, [r0], #4
    9680:	e1a02003 	mov	r2, r3
    9684:	e2423001 	sub	r3, r2, #1, 0
    9688:	e3520000 	cmp	r2, #0, 0
    968c:	1afffffa 	bne	967c <memset+0x40>
    9690:	e12fff1e 	bx	lr
    9694:	e4c01001 	strb	r1, [r0], #1
    9698:	e1500002 	cmp	r0, r2
    969c:	3afffffc 	bcc	9694 <memset+0x58>
    96a0:	e12fff1e 	bx	lr
    96a4:	e1a021a2 	lsr	r2, r2, #3
    96a8:	e2423001 	sub	r3, r2, #1, 0
    96ac:	e3520000 	cmp	r2, #0, 0
    96b0:	012fff1e 	bxeq	lr
    96b4:	e92d0030 	push	{r4, r5}
    96b8:	e1a04001 	mov	r4, r1
    96bc:	e1a05fc1 	asr	r5, r1, #31
    96c0:	e0c040f8 	strd	r4, [r0], #8
    96c4:	e1a02003 	mov	r2, r3
    96c8:	e2433001 	sub	r3, r3, #1, 0
    96cc:	e3520000 	cmp	r2, #0, 0
    96d0:	1afffff8 	bne	96b8 <memset+0x7c>
    96d4:	e8bd0030 	pop	{r4, r5}
    96d8:	e12fff1e 	bx	lr

000096dc <putk>:
    96dc:	e92d4010 	push	{r4, lr}
    96e0:	e1a04000 	mov	r4, r0
    96e4:	e5d40000 	ldrb	r0, [r4]
    96e8:	e3500000 	cmp	r0, #0, 0
    96ec:	0a000004 	beq	9704 <putk+0x28>
    96f0:	e59f3014 	ldr	r3, [pc, #20]	; 970c <putk+0x30>
    96f4:	e5933000 	ldr	r3, [r3]
    96f8:	e12fff33 	blx	r3
    96fc:	e2844001 	add	r4, r4, #1, 0
    9700:	eafffff7 	b	96e4 <putk+0x8>
    9704:	e3a00001 	mov	r0, #1, 0
    9708:	e8bd8010 	pop	{r4, pc}
    970c:	00009d04 	.word	0x00009d04

00009710 <rpi_wait>:
    9710:	e12fff1e 	bx	lr

00009714 <__code_end__>:
    9714:	00000000 	andeq	r0, r0, r0
