
objs/l1/l2/l3//tests/4-arduino-keygen.elf:     file format elf32-littlearm


Disassembly of section .text:

00008000 <__code_start__>:
    8000:	e3a00013 	mov	r0, #19, 0
    8004:	e3800080 	orr	r0, r0, #128, 0	; 0x80
    8008:	e129f000 	msr	CPSR_fc, r0
    800c:	e3a01000 	mov	r1, #0, 0
    8010:	ee071f95 	mcr	15, 0, r1, cr7, cr5, {4}
    8014:	e3a0d302 	mov	sp, #134217728	; 0x8000000
    8018:	e3a0b000 	mov	fp, #0, 0
    801c:	eb0003db 	bl	8f90 <_cstart>
    8020:	eb000410 	bl	9068 <rpi_reboot>

00008024 <PUT32>:
    8024:	e5801000 	str	r1, [r0]
    8028:	e12fff1e 	bx	lr

0000802c <GET32>:
    802c:	e5900000 	ldr	r0, [r0]
    8030:	e12fff1e 	bx	lr

00008034 <BRANCHTO>:
    8034:	e12fff10 	bx	r0

00008038 <i2c_write_cmd>:
    8038:	e92d4070 	push	{r4, r5, r6, lr}
    803c:	e1a04002 	mov	r4, r2
    8040:	e1a05003 	mov	r5, r3
    8044:	e1a02001 	mov	r2, r1
    8048:	e1a01000 	mov	r1, r0
    804c:	e3a00060 	mov	r0, #96, 0	; 0x60
    8050:	eb0000a2 	bl	82e0 <i2c_write>
    8054:	e59d0010 	ldr	r0, [sp, #16]
    8058:	eb000425 	bl	90f4 <delay_ms>
    805c:	e1a02005 	mov	r2, r5
    8060:	e1a01004 	mov	r1, r4
    8064:	e3a00060 	mov	r0, #96, 0	; 0x60
    8068:	eb0000fa 	bl	8458 <i2c_read>
    806c:	e3a00000 	mov	r0, #0, 0
    8070:	e8bd8070 	pop	{r4, r5, r6, pc}

00008074 <notmain>:
    8074:	e92d4010 	push	{r4, lr}
    8078:	e24dd0a0 	sub	sp, sp, #160, 0	; 0xa0
    807c:	eb000428 	bl	9124 <uart_init>
    8080:	e3a01060 	mov	r1, #96, 0	; 0x60
    8084:	e59f0184 	ldr	r0, [pc, #388]	; 8210 <notmain+0x19c>
    8088:	eb0002ac 	bl	8b40 <printk>
    808c:	eb00006d 	bl	8248 <i2c_init>
    8090:	eb0003ee 	bl	9050 <dev_barrier>
    8094:	e59f0178 	ldr	r0, [pc, #376]	; 8214 <notmain+0x1a0>
    8098:	eb0002a8 	bl	8b40 <printk>
    809c:	e59f3174 	ldr	r3, [pc, #372]	; 8218 <notmain+0x1a4>
    80a0:	e58d309c 	str	r3, [sp, #156]	; 0x9c
    80a4:	e3a03f4b 	mov	r3, #300	; 0x12c
    80a8:	e58d3000 	str	r3, [sp]
    80ac:	e3a03004 	mov	r3, #4, 0
    80b0:	e28d2098 	add	r2, sp, #152, 0	; 0x98
    80b4:	e1a01003 	mov	r1, r3
    80b8:	e28d009c 	add	r0, sp, #156, 0	; 0x9c
    80bc:	ebffffdd 	bl	8038 <i2c_write_cmd>
    80c0:	e59f0154 	ldr	r0, [pc, #340]	; 821c <notmain+0x1a8>
    80c4:	eb00029d 	bl	8b40 <printk>
    80c8:	e59f0150 	ldr	r0, [pc, #336]	; 8220 <notmain+0x1ac>
    80cc:	eb00029b 	bl	8b40 <printk>
    80d0:	e3a04000 	mov	r4, #0, 0
    80d4:	ea000005 	b	80f0 <notmain+0x7c>
    80d8:	e28d30a0 	add	r3, sp, #160, 0	; 0xa0
    80dc:	e0833004 	add	r3, r3, r4
    80e0:	e5531008 	ldrb	r1, [r3, #-8]
    80e4:	e59f0138 	ldr	r0, [pc, #312]	; 8224 <notmain+0x1b0>
    80e8:	eb000294 	bl	8b40 <printk>
    80ec:	e2844001 	add	r4, r4, #1, 0
    80f0:	e3540003 	cmp	r4, #3, 0
    80f4:	dafffff7 	ble	80d8 <notmain+0x64>
    80f8:	e59f0128 	ldr	r0, [pc, #296]	; 8228 <notmain+0x1b4>
    80fc:	eb00028f 	bl	8b40 <printk>
    8100:	e59f0124 	ldr	r0, [pc, #292]	; 822c <notmain+0x1b8>
    8104:	eb00028d 	bl	8b40 <printk>
    8108:	e3a03007 	mov	r3, #7, 0
    810c:	e5cd3090 	strb	r3, [sp, #144]	; 0x90
    8110:	e3a03040 	mov	r3, #64, 0	; 0x40
    8114:	e5cd3091 	strb	r3, [sp, #145]	; 0x91
    8118:	e3a04000 	mov	r4, #0, 0
    811c:	e5cd4092 	strb	r4, [sp, #146]	; 0x92
    8120:	e5cd4093 	strb	r4, [sp, #147]	; 0x93
    8124:	e5cd4094 	strb	r4, [sp, #148]	; 0x94
    8128:	e5cd4095 	strb	r4, [sp, #149]	; 0x95
    812c:	e5cd4096 	strb	r4, [sp, #150]	; 0x96
    8130:	e5cd4097 	strb	r4, [sp, #151]	; 0x97
    8134:	e59f20f4 	ldr	r2, [pc, #244]	; 8230 <notmain+0x1bc>
    8138:	e58d2000 	str	r2, [sp]
    813c:	e28d2050 	add	r2, sp, #80, 0	; 0x50
    8140:	e3a01008 	mov	r1, #8, 0
    8144:	e28d0090 	add	r0, sp, #144, 0	; 0x90
    8148:	ebffffba 	bl	8038 <i2c_write_cmd>
    814c:	e1a01004 	mov	r1, r4
    8150:	e59f00dc 	ldr	r0, [pc, #220]	; 8234 <notmain+0x1c0>
    8154:	eb000279 	bl	8b40 <printk>
    8158:	e59f30d8 	ldr	r3, [pc, #216]	; 8238 <notmain+0x1c4>
    815c:	e58d304c 	str	r3, [sp, #76]	; 0x4c
    8160:	e3a03f7d 	mov	r3, #500	; 0x1f4
    8164:	e58d3000 	str	r3, [sp]
    8168:	e3a03020 	mov	r3, #32, 0
    816c:	e28d202c 	add	r2, sp, #44, 0	; 0x2c
    8170:	e3a01004 	mov	r1, #4, 0
    8174:	e28d004c 	add	r0, sp, #76, 0	; 0x4c
    8178:	ebffffae 	bl	8038 <i2c_write_cmd>
    817c:	e59f00b8 	ldr	r0, [pc, #184]	; 823c <notmain+0x1c8>
    8180:	eb00026e 	bl	8b40 <printk>
    8184:	ea000005 	b	81a0 <notmain+0x12c>
    8188:	e28d30a0 	add	r3, sp, #160, 0	; 0xa0
    818c:	e0833004 	add	r3, r3, r4
    8190:	e5531074 	ldrb	r1, [r3, #-116]	; 0xffffff8c
    8194:	e59f0088 	ldr	r0, [pc, #136]	; 8224 <notmain+0x1b0>
    8198:	eb000268 	bl	8b40 <printk>
    819c:	e2844001 	add	r4, r4, #1, 0
    81a0:	e354001f 	cmp	r4, #31, 0
    81a4:	dafffff7 	ble	8188 <notmain+0x114>
    81a8:	e59f0078 	ldr	r0, [pc, #120]	; 8228 <notmain+0x1b4>
    81ac:	eb000263 	bl	8b40 <printk>
    81b0:	e59f3088 	ldr	r3, [pc, #136]	; 8240 <notmain+0x1cc>
    81b4:	e58d3028 	str	r3, [sp, #40]	; 0x28
    81b8:	e3a03f7d 	mov	r3, #500	; 0x1f4
    81bc:	e58d3000 	str	r3, [sp]
    81c0:	e3a03020 	mov	r3, #32, 0
    81c4:	e28d2008 	add	r2, sp, #8, 0
    81c8:	e3a01004 	mov	r1, #4, 0
    81cc:	e28d0028 	add	r0, sp, #40, 0	; 0x28
    81d0:	ebffff98 	bl	8038 <i2c_write_cmd>
    81d4:	e59f0068 	ldr	r0, [pc, #104]	; 8244 <notmain+0x1d0>
    81d8:	eb000258 	bl	8b40 <printk>
    81dc:	e3a04000 	mov	r4, #0, 0
    81e0:	e354001f 	cmp	r4, #31, 0
    81e4:	ca000006 	bgt	8204 <notmain+0x190>
    81e8:	e28d30a0 	add	r3, sp, #160, 0	; 0xa0
    81ec:	e0833004 	add	r3, r3, r4
    81f0:	e5531098 	ldrb	r1, [r3, #-152]	; 0xffffff68
    81f4:	e59f0028 	ldr	r0, [pc, #40]	; 8224 <notmain+0x1b0>
    81f8:	eb000250 	bl	8b40 <printk>
    81fc:	e2844001 	add	r4, r4, #1, 0
    8200:	eafffff6 	b	81e0 <notmain+0x16c>
    8204:	e59f001c 	ldr	r0, [pc, #28]	; 8228 <notmain+0x1b4>
    8208:	eb00024c 	bl	8b40 <printk>
    820c:	eb000354 	bl	8f64 <clean_reboot>
    8210:	000096c0 	.word	0x000096c0
    8214:	000096e4 	.word	0x000096e4
    8218:	00003003 	.word	0x00003003
    821c:	000096f8 	.word	0x000096f8
    8220:	0000970c 	.word	0x0000970c
    8224:	00009724 	.word	0x00009724
    8228:	00009ab4 	.word	0x00009ab4
    822c:	00009728 	.word	0x00009728
    8230:	00001388 	.word	0x00001388
    8234:	00009744 	.word	0x00009744
    8238:	00002303 	.word	0x00002303
    823c:	00009764 	.word	0x00009764
    8240:	01002303 	.word	0x01002303
    8244:	00009774 	.word	0x00009774

00008248 <i2c_init>:
    8248:	e92d4010 	push	{r4, lr}
    824c:	e3a01004 	mov	r1, #4, 0
    8250:	e3a00002 	mov	r0, #2, 0
    8254:	eb000427 	bl	92f8 <gpio_set_function>
    8258:	e3a01004 	mov	r1, #4, 0
    825c:	e3a00003 	mov	r0, #3, 0
    8260:	eb000424 	bl	92f8 <gpio_set_function>
    8264:	e3a00002 	mov	r0, #2, 0
    8268:	eb0004c0 	bl	9570 <gpio_set_pullup>
    826c:	e3a00003 	mov	r0, #3, 0
    8270:	eb0004be 	bl	9570 <gpio_set_pullup>
    8274:	e59f404c 	ldr	r4, [pc, #76]	; 82c8 <i2c_init+0x80>
    8278:	e3a01000 	mov	r1, #0, 0
    827c:	e1a00004 	mov	r0, r4
    8280:	ebffff67 	bl	8024 <PUT32>
    8284:	eb000371 	bl	9050 <dev_barrier>
    8288:	e59f103c 	ldr	r1, [pc, #60]	; 82cc <i2c_init+0x84>
    828c:	e59f003c 	ldr	r0, [pc, #60]	; 82d0 <i2c_init+0x88>
    8290:	ebffff63 	bl	8024 <PUT32>
    8294:	eb00036d 	bl	9050 <dev_barrier>
    8298:	e59f1034 	ldr	r1, [pc, #52]	; 82d4 <i2c_init+0x8c>
    829c:	e59f0034 	ldr	r0, [pc, #52]	; 82d8 <i2c_init+0x90>
    82a0:	ebffff5f 	bl	8024 <PUT32>
    82a4:	eb000369 	bl	9050 <dev_barrier>
    82a8:	e3a01902 	mov	r1, #32768	; 0x8000
    82ac:	e1a00004 	mov	r0, r4
    82b0:	ebffff5b 	bl	8024 <PUT32>
    82b4:	eb000365 	bl	9050 <dev_barrier>
    82b8:	eb000364 	bl	9050 <dev_barrier>
    82bc:	e59f0018 	ldr	r0, [pc, #24]	; 82dc <i2c_init+0x94>
    82c0:	eb00021e 	bl	8b40 <printk>
    82c4:	e8bd8010 	pop	{r4, pc}
    82c8:	20804000 	.word	0x20804000
    82cc:	00000302 	.word	0x00000302
    82d0:	20804004 	.word	0x20804004
    82d4:	000005dc 	.word	0x000005dc
    82d8:	20804014 	.word	0x20804014
    82dc:	000096e4 	.word	0x000096e4

000082e0 <i2c_write>:
    82e0:	e92d41f0 	push	{r4, r5, r6, r7, r8, lr}
    82e4:	e1a04000 	mov	r4, r0
    82e8:	e1a06001 	mov	r6, r1
    82ec:	e1a05002 	mov	r5, r2
    82f0:	e59f7140 	ldr	r7, [pc, #320]	; 8438 <i2c_write+0x158>
    82f4:	e1a00007 	mov	r0, r7
    82f8:	ebffff4b 	bl	802c <GET32>
    82fc:	e3801020 	orr	r1, r0, #32, 0
    8300:	e1a00007 	mov	r0, r7
    8304:	ebffff46 	bl	8024 <PUT32>
    8308:	eb000350 	bl	9050 <dev_barrier>
    830c:	e59f1128 	ldr	r1, [pc, #296]	; 843c <i2c_write+0x15c>
    8310:	e59f0128 	ldr	r0, [pc, #296]	; 8440 <i2c_write+0x160>
    8314:	ebffff42 	bl	8024 <PUT32>
    8318:	eb00034c 	bl	9050 <dev_barrier>
    831c:	e1a01004 	mov	r1, r4
    8320:	e59f011c 	ldr	r0, [pc, #284]	; 8444 <i2c_write+0x164>
    8324:	ebffff3e 	bl	8024 <PUT32>
    8328:	eb000348 	bl	9050 <dev_barrier>
    832c:	e1a01005 	mov	r1, r5
    8330:	e59f0110 	ldr	r0, [pc, #272]	; 8448 <i2c_write+0x168>
    8334:	ebffff3a 	bl	8024 <PUT32>
    8338:	eb000344 	bl	9050 <dev_barrier>
    833c:	e3a04000 	mov	r4, #0, 0
    8340:	e354000f 	cmp	r4, #15, 0
    8344:	91540005 	cmpls	r4, r5
    8348:	2a000004 	bcs	8360 <i2c_write+0x80>
    834c:	e7d61004 	ldrb	r1, [r6, r4]
    8350:	e59f00f4 	ldr	r0, [pc, #244]	; 844c <i2c_write+0x16c>
    8354:	ebffff32 	bl	8024 <PUT32>
    8358:	e2844001 	add	r4, r4, #1, 0
    835c:	eafffff7 	b	8340 <i2c_write+0x60>
    8360:	e59f40d0 	ldr	r4, [pc, #208]	; 8438 <i2c_write+0x158>
    8364:	e1a00004 	mov	r0, r4
    8368:	ebffff2f 	bl	802c <GET32>
    836c:	e3c01902 	bic	r1, r0, #32768	; 0x8000
    8370:	e3c11081 	bic	r1, r1, #129, 0	; 0x81
    8374:	e3811902 	orr	r1, r1, #32768	; 0x8000
    8378:	e3811080 	orr	r1, r1, #128, 0	; 0x80
    837c:	e1a00004 	mov	r0, r4
    8380:	ebffff27 	bl	8024 <PUT32>
    8384:	eb000331 	bl	9050 <dev_barrier>
    8388:	e3550010 	cmp	r5, #16, 0
    838c:	31a04005 	movcc	r4, r5
    8390:	23a04010 	movcs	r4, #16, 0
    8394:	ea000009 	b	83c0 <i2c_write+0xe0>
    8398:	e1a01000 	mov	r1, r0
    839c:	e59f00ac 	ldr	r0, [pc, #172]	; 8450 <i2c_write+0x170>
    83a0:	eb0001e6 	bl	8b40 <printk>
    83a4:	e3e00000 	mvn	r0, #0, 0
    83a8:	e8bd81f0 	pop	{r4, r5, r6, r7, r8, pc}
    83ac:	e2847001 	add	r7, r4, #1, 0
    83b0:	e7d61004 	ldrb	r1, [r6, r4]
    83b4:	e59f0090 	ldr	r0, [pc, #144]	; 844c <i2c_write+0x16c>
    83b8:	ebffff19 	bl	8024 <PUT32>
    83bc:	e1a04007 	mov	r4, r7
    83c0:	e1540005 	cmp	r4, r5
    83c4:	3a000003 	bcc	83d8 <i2c_write+0xf8>
    83c8:	e59f0070 	ldr	r0, [pc, #112]	; 8440 <i2c_write+0x160>
    83cc:	ebffff16 	bl	802c <GET32>
    83d0:	e3100002 	tst	r0, #2, 0
    83d4:	1a000008 	bne	83fc <i2c_write+0x11c>
    83d8:	e59f0060 	ldr	r0, [pc, #96]	; 8440 <i2c_write+0x160>
    83dc:	ebffff12 	bl	802c <GET32>
    83e0:	e3100c03 	tst	r0, #768	; 0x300
    83e4:	1affffeb 	bne	8398 <i2c_write+0xb8>
    83e8:	e3100010 	tst	r0, #16, 0
    83ec:	0afffff3 	beq	83c0 <i2c_write+0xe0>
    83f0:	e1540005 	cmp	r4, r5
    83f4:	2afffff1 	bcs	83c0 <i2c_write+0xe0>
    83f8:	eaffffeb 	b	83ac <i2c_write+0xcc>
    83fc:	e59f003c 	ldr	r0, [pc, #60]	; 8440 <i2c_write+0x160>
    8400:	ebffff09 	bl	802c <GET32>
    8404:	e3100002 	tst	r0, #2, 0
    8408:	0afffffb 	beq	83fc <i2c_write+0x11c>
    840c:	e59f002c 	ldr	r0, [pc, #44]	; 8440 <i2c_write+0x160>
    8410:	ebffff05 	bl	802c <GET32>
    8414:	e3100c03 	tst	r0, #768	; 0x300
    8418:	1a000001 	bne	8424 <i2c_write+0x144>
    841c:	e1a00005 	mov	r0, r5
    8420:	e8bd81f0 	pop	{r4, r5, r6, r7, r8, pc}
    8424:	e1a01000 	mov	r1, r0
    8428:	e59f0024 	ldr	r0, [pc, #36]	; 8454 <i2c_write+0x174>
    842c:	eb0001c3 	bl	8b40 <printk>
    8430:	e3e00000 	mvn	r0, #0, 0
    8434:	e8bd81f0 	pop	{r4, r5, r6, r7, r8, pc}
    8438:	20804000 	.word	0x20804000
    843c:	00000302 	.word	0x00000302
    8440:	20804004 	.word	0x20804004
    8444:	2080400c 	.word	0x2080400c
    8448:	20804008 	.word	0x20804008
    844c:	20804010 	.word	0x20804010
    8450:	00009784 	.word	0x00009784
    8454:	000097a0 	.word	0x000097a0

00008458 <i2c_read>:
    8458:	e92d41f0 	push	{r4, r5, r6, r7, r8, lr}
    845c:	e1a07000 	mov	r7, r0
    8460:	e1a08001 	mov	r8, r1
    8464:	e1a05002 	mov	r5, r2
    8468:	e59f011c 	ldr	r0, [pc, #284]	; 858c <i2c_read+0x134>
    846c:	ebfffeee 	bl	802c <GET32>
    8470:	e2104001 	ands	r4, r0, #1, 0
    8474:	1a000027 	bne	8518 <i2c_read+0xc0>
    8478:	e59f6110 	ldr	r6, [pc, #272]	; 8590 <i2c_read+0x138>
    847c:	e1a00006 	mov	r0, r6
    8480:	ebfffee9 	bl	802c <GET32>
    8484:	e3801020 	orr	r1, r0, #32, 0
    8488:	e1a00006 	mov	r0, r6
    848c:	ebfffee4 	bl	8024 <PUT32>
    8490:	eb0002ee 	bl	9050 <dev_barrier>
    8494:	e59f10f8 	ldr	r1, [pc, #248]	; 8594 <i2c_read+0x13c>
    8498:	e59f00ec 	ldr	r0, [pc, #236]	; 858c <i2c_read+0x134>
    849c:	ebfffee0 	bl	8024 <PUT32>
    84a0:	eb0002ea 	bl	9050 <dev_barrier>
    84a4:	e1a01007 	mov	r1, r7
    84a8:	e59f00e8 	ldr	r0, [pc, #232]	; 8598 <i2c_read+0x140>
    84ac:	ebfffedc 	bl	8024 <PUT32>
    84b0:	eb0002e6 	bl	9050 <dev_barrier>
    84b4:	e1a01005 	mov	r1, r5
    84b8:	e59f00dc 	ldr	r0, [pc, #220]	; 859c <i2c_read+0x144>
    84bc:	ebfffed8 	bl	8024 <PUT32>
    84c0:	eb0002e2 	bl	9050 <dev_barrier>
    84c4:	e1a00006 	mov	r0, r6
    84c8:	ebfffed7 	bl	802c <GET32>
    84cc:	e3801081 	orr	r1, r0, #129, 0	; 0x81
    84d0:	e1a00006 	mov	r0, r6
    84d4:	ebfffed2 	bl	8024 <PUT32>
    84d8:	eb0002dc 	bl	9050 <dev_barrier>
    84dc:	e1540005 	cmp	r4, r5
    84e0:	2a000015 	bcs	853c <i2c_read+0xe4>
    84e4:	e59f00a0 	ldr	r0, [pc, #160]	; 858c <i2c_read+0x134>
    84e8:	ebfffecf 	bl	802c <GET32>
    84ec:	e3100020 	tst	r0, #32, 0
    84f0:	1a00000c 	bne	8528 <i2c_read+0xd0>
    84f4:	e59f0090 	ldr	r0, [pc, #144]	; 858c <i2c_read+0x134>
    84f8:	ebfffecb 	bl	802c <GET32>
    84fc:	e3100c03 	tst	r0, #768	; 0x300
    8500:	0afffff7 	beq	84e4 <i2c_read+0x8c>
    8504:	e1a01000 	mov	r1, r0
    8508:	e59f0090 	ldr	r0, [pc, #144]	; 85a0 <i2c_read+0x148>
    850c:	eb00018b 	bl	8b40 <printk>
    8510:	e3e00000 	mvn	r0, #0, 0
    8514:	e8bd81f0 	pop	{r4, r5, r6, r7, r8, pc}
    8518:	e59f0084 	ldr	r0, [pc, #132]	; 85a4 <i2c_read+0x14c>
    851c:	eb000187 	bl	8b40 <printk>
    8520:	e3e00000 	mvn	r0, #0, 0
    8524:	e8bd81f0 	pop	{r4, r5, r6, r7, r8, pc}
    8528:	e59f0078 	ldr	r0, [pc, #120]	; 85a8 <i2c_read+0x150>
    852c:	ebfffebe 	bl	802c <GET32>
    8530:	e7c80004 	strb	r0, [r8, r4]
    8534:	e2844001 	add	r4, r4, #1, 0
    8538:	eaffffe7 	b	84dc <i2c_read+0x84>
    853c:	e59f0048 	ldr	r0, [pc, #72]	; 858c <i2c_read+0x134>
    8540:	ebfffeb9 	bl	802c <GET32>
    8544:	e3100002 	tst	r0, #2, 0
    8548:	1a000006 	bne	8568 <i2c_read+0x110>
    854c:	e3100c03 	tst	r0, #768	; 0x300
    8550:	0afffff9 	beq	853c <i2c_read+0xe4>
    8554:	e1a01000 	mov	r1, r0
    8558:	e59f004c 	ldr	r0, [pc, #76]	; 85ac <i2c_read+0x154>
    855c:	eb000177 	bl	8b40 <printk>
    8560:	e3e00000 	mvn	r0, #0, 0
    8564:	e8bd81f0 	pop	{r4, r5, r6, r7, r8, pc}
    8568:	e3100c03 	tst	r0, #768	; 0x300
    856c:	1a000001 	bne	8578 <i2c_read+0x120>
    8570:	e1a00005 	mov	r0, r5
    8574:	e8bd81f0 	pop	{r4, r5, r6, r7, r8, pc}
    8578:	e1a01000 	mov	r1, r0
    857c:	e59f002c 	ldr	r0, [pc, #44]	; 85b0 <i2c_read+0x158>
    8580:	eb00016e 	bl	8b40 <printk>
    8584:	e3e00000 	mvn	r0, #0, 0
    8588:	e8bd81f0 	pop	{r4, r5, r6, r7, r8, pc}
    858c:	20804004 	.word	0x20804004
    8590:	20804000 	.word	0x20804000
    8594:	00000302 	.word	0x00000302
    8598:	2080400c 	.word	0x2080400c
    859c:	20804008 	.word	0x20804008
    85a0:	000097d8 	.word	0x000097d8
    85a4:	000097bc 	.word	0x000097bc
    85a8:	20804010 	.word	0x20804010
    85ac:	000097f4 	.word	0x000097f4
    85b0:	0000981c 	.word	0x0000981c

000085b4 <i2c_init_clk_div>:
    85b4:	e92d4070 	push	{r4, r5, r6, lr}
    85b8:	e1a04000 	mov	r4, r0
    85bc:	e59f504c 	ldr	r5, [pc, #76]	; 8610 <i2c_init_clk_div+0x5c>
    85c0:	e3a01000 	mov	r1, #0, 0
    85c4:	e1a00005 	mov	r0, r5
    85c8:	ebfffe95 	bl	8024 <PUT32>
    85cc:	eb00029f 	bl	9050 <dev_barrier>
    85d0:	e59f103c 	ldr	r1, [pc, #60]	; 8614 <i2c_init_clk_div+0x60>
    85d4:	e59f003c 	ldr	r0, [pc, #60]	; 8618 <i2c_init_clk_div+0x64>
    85d8:	ebfffe91 	bl	8024 <PUT32>
    85dc:	eb00029b 	bl	9050 <dev_barrier>
    85e0:	e1a01004 	mov	r1, r4
    85e4:	e59f0030 	ldr	r0, [pc, #48]	; 861c <i2c_init_clk_div+0x68>
    85e8:	ebfffe8d 	bl	8024 <PUT32>
    85ec:	eb000297 	bl	9050 <dev_barrier>
    85f0:	e3a01902 	mov	r1, #32768	; 0x8000
    85f4:	e1a00005 	mov	r0, r5
    85f8:	ebfffe89 	bl	8024 <PUT32>
    85fc:	eb000293 	bl	9050 <dev_barrier>
    8600:	e1a01004 	mov	r1, r4
    8604:	e59f0014 	ldr	r0, [pc, #20]	; 8620 <i2c_init_clk_div+0x6c>
    8608:	eb00014c 	bl	8b40 <printk>
    860c:	e8bd8070 	pop	{r4, r5, r6, pc}
    8610:	20804000 	.word	0x20804000
    8614:	00000302 	.word	0x00000302
    8618:	20804004 	.word	0x20804004
    861c:	20804014 	.word	0x20804014
    8620:	00009838 	.word	0x00009838

00008624 <i2c_init_once>:
    8624:	e59f3020 	ldr	r3, [pc, #32]	; 864c <i2c_init_once+0x28>
    8628:	e5933000 	ldr	r3, [r3]
    862c:	e3530000 	cmp	r3, #0, 0
    8630:	112fff1e 	bxne	lr
    8634:	e92d4010 	push	{r4, lr}
    8638:	ebffff02 	bl	8248 <i2c_init>
    863c:	e59f3008 	ldr	r3, [pc, #8]	; 864c <i2c_init_once+0x28>
    8640:	e3a02001 	mov	r2, #1, 0
    8644:	e5832000 	str	r2, [r3]
    8648:	e8bd8010 	pop	{r4, pc}
    864c:	00009c90 	.word	0x00009c90

00008650 <atecc608a_send_command>:
    8650:	e92d40f0 	push	{r4, r5, r6, r7, lr}
    8654:	e24dd084 	sub	sp, sp, #132, 0	; 0x84
    8658:	e5ddc098 	ldrb	ip, [sp, #152]	; 0x98
    865c:	e59d409c 	ldr	r4, [sp, #156]	; 0x9c
    8660:	e59d50a0 	ldr	r5, [sp, #160]	; 0xa0
    8664:	e28c6008 	add	r6, ip, #8, 0
    8668:	e6ef6076 	uxtb	r6, r6
    866c:	e5cd6040 	strb	r6, [sp, #64]	; 0x40
    8670:	e5cd0041 	strb	r0, [sp, #65]	; 0x41
    8674:	e5cd1042 	strb	r1, [sp, #66]	; 0x42
    8678:	e5cd2043 	strb	r2, [sp, #67]	; 0x43
    867c:	e1a02422 	lsr	r2, r2, #8
    8680:	e5cd2044 	strb	r2, [sp, #68]	; 0x44
    8684:	e25c2000 	subs	r2, ip, #0, 0
    8688:	13a02001 	movne	r2, #1, 0
    868c:	e3530000 	cmp	r3, #0, 0
    8690:	03a02000 	moveq	r2, #0, 0
    8694:	e3520000 	cmp	r2, #0, 0
    8698:	1a000026 	bne	8738 <atecc608a_send_command+0xe8>
    869c:	e2463002 	sub	r3, r6, #2, 0
    86a0:	e28d2080 	add	r2, sp, #128, 0	; 0x80
    86a4:	e0823003 	add	r3, r2, r3
    86a8:	e3e02055 	mvn	r2, #85, 0	; 0x55
    86ac:	e5432040 	strb	r2, [r3, #-64]	; 0xffffffc0
    86b0:	e2463001 	sub	r3, r6, #1, 0
    86b4:	e28d2080 	add	r2, sp, #128, 0	; 0x80
    86b8:	e0823003 	add	r3, r2, r3
    86bc:	e3e02044 	mvn	r2, #68, 0	; 0x44
    86c0:	e5432040 	strb	r2, [r3, #-64]	; 0xffffffc0
    86c4:	e1a02006 	mov	r2, r6
    86c8:	e28d1040 	add	r1, sp, #64, 0	; 0x40
    86cc:	e3a00060 	mov	r0, #96, 0	; 0x60
    86d0:	ebffff02 	bl	82e0 <i2c_write>
    86d4:	e1560000 	cmp	r6, r0
    86d8:	1a000021 	bne	8764 <atecc608a_send_command+0x114>
    86dc:	e3a00005 	mov	r0, #5, 0
    86e0:	eb000283 	bl	90f4 <delay_ms>
    86e4:	e3a02001 	mov	r2, #1, 0
    86e8:	e1a0100d 	mov	r1, sp
    86ec:	e3a00060 	mov	r0, #96, 0	; 0x60
    86f0:	ebffff58 	bl	8458 <i2c_read>
    86f4:	e3500001 	cmp	r0, #1, 0
    86f8:	1a00001d 	bne	8774 <atecc608a_send_command+0x124>
    86fc:	e5dd6000 	ldrb	r6, [sp]
    8700:	e3560001 	cmp	r6, #1, 0
    8704:	ca00001e 	bgt	8784 <atecc608a_send_command+0x134>
    8708:	e2553000 	subs	r3, r5, #0, 0
    870c:	13a03001 	movne	r3, #1, 0
    8710:	e3540000 	cmp	r4, #0, 0
    8714:	03a03000 	moveq	r3, #0, 0
    8718:	e3530000 	cmp	r3, #0, 0
    871c:	0a00002c 	beq	87d4 <atecc608a_send_command+0x184>
    8720:	e2466003 	sub	r6, r6, #3, 0
    8724:	e5d51000 	ldrb	r1, [r5]
    8728:	e1510006 	cmp	r1, r6
    872c:	a1a01006 	movge	r1, r6
    8730:	e3a03000 	mov	r3, #0, 0
    8734:	ea000023 	b	87c8 <atecc608a_send_command+0x178>
    8738:	e1a00003 	mov	r0, r3
    873c:	e3a03000 	mov	r3, #0, 0
    8740:	e15c0003 	cmp	ip, r3
    8744:	daffffd4 	ble	869c <atecc608a_send_command+0x4c>
    8748:	e2832005 	add	r2, r3, #5, 0
    874c:	e7d01003 	ldrb	r1, [r0, r3]
    8750:	e28de080 	add	lr, sp, #128, 0	; 0x80
    8754:	e08e2002 	add	r2, lr, r2
    8758:	e5421040 	strb	r1, [r2, #-64]	; 0xffffffc0
    875c:	e2833001 	add	r3, r3, #1, 0
    8760:	eafffff6 	b	8740 <atecc608a_send_command+0xf0>
    8764:	e59f0090 	ldr	r0, [pc, #144]	; 87fc <atecc608a_send_command+0x1ac>
    8768:	eb0000f4 	bl	8b40 <printk>
    876c:	e3e00000 	mvn	r0, #0, 0
    8770:	ea00001b 	b	87e4 <atecc608a_send_command+0x194>
    8774:	e59f0084 	ldr	r0, [pc, #132]	; 8800 <atecc608a_send_command+0x1b0>
    8778:	eb0000f0 	bl	8b40 <printk>
    877c:	e3e00000 	mvn	r0, #0, 0
    8780:	ea000017 	b	87e4 <atecc608a_send_command+0x194>
    8784:	e2467001 	sub	r7, r6, #1, 0
    8788:	e1a02007 	mov	r2, r7
    878c:	e28d1001 	add	r1, sp, #1, 0
    8790:	e3a00060 	mov	r0, #96, 0	; 0x60
    8794:	ebffff2f 	bl	8458 <i2c_read>
    8798:	e1570000 	cmp	r7, r0
    879c:	0affffd9 	beq	8708 <atecc608a_send_command+0xb8>
    87a0:	e59f005c 	ldr	r0, [pc, #92]	; 8804 <atecc608a_send_command+0x1b4>
    87a4:	eb0000e5 	bl	8b40 <printk>
    87a8:	e3e00000 	mvn	r0, #0, 0
    87ac:	ea00000c 	b	87e4 <atecc608a_send_command+0x194>
    87b0:	e2832002 	add	r2, r3, #2, 0
    87b4:	e28d0080 	add	r0, sp, #128, 0	; 0x80
    87b8:	e0802002 	add	r2, r0, r2
    87bc:	e5522080 	ldrb	r2, [r2, #-128]	; 0xffffff80
    87c0:	e7c42003 	strb	r2, [r4, r3]
    87c4:	e2833001 	add	r3, r3, #1, 0
    87c8:	e1510003 	cmp	r1, r3
    87cc:	cafffff7 	bgt	87b0 <atecc608a_send_command+0x160>
    87d0:	e5c51000 	strb	r1, [r5]
    87d4:	e5dd1001 	ldrb	r1, [sp, #1]
    87d8:	e3510000 	cmp	r1, #0, 0
    87dc:	1a000002 	bne	87ec <atecc608a_send_command+0x19c>
    87e0:	e3a00000 	mov	r0, #0, 0
    87e4:	e28dd084 	add	sp, sp, #132, 0	; 0x84
    87e8:	e8bd80f0 	pop	{r4, r5, r6, r7, pc}
    87ec:	e59f0014 	ldr	r0, [pc, #20]	; 8808 <atecc608a_send_command+0x1b8>
    87f0:	eb0000d2 	bl	8b40 <printk>
    87f4:	e3e00000 	mvn	r0, #0, 0
    87f8:	eafffff9 	b	87e4 <atecc608a_send_command+0x194>
    87fc:	00009860 	.word	0x00009860
    8800:	00009888 	.word	0x00009888
    8804:	000098a8 	.word	0x000098a8
    8808:	000098cc 	.word	0x000098cc

0000880c <atecc608a_is_awake>:
    880c:	e52de004 	push	{lr}		; (str lr, [sp, #-4]!)
    8810:	e24dd00c 	sub	sp, sp, #12, 0
    8814:	e3a02004 	mov	r2, #4, 0
    8818:	e08d1002 	add	r1, sp, r2
    881c:	e3a00060 	mov	r0, #96, 0	; 0x60
    8820:	ebffff0c 	bl	8458 <i2c_read>
    8824:	e3500004 	cmp	r0, #4, 0
    8828:	0a000004 	beq	8840 <atecc608a_is_awake+0x34>
    882c:	e3500004 	cmp	r0, #4, 0
    8830:	0a00000a 	beq	8860 <atecc608a_is_awake+0x54>
    8834:	e3a00000 	mov	r0, #0, 0
    8838:	e28dd00c 	add	sp, sp, #12, 0
    883c:	e49df004 	pop	{pc}		; (ldr pc, [sp], #4)
    8840:	e5dd3004 	ldrb	r3, [sp, #4]
    8844:	e3530004 	cmp	r3, #4, 0
    8848:	1afffff7 	bne	882c <atecc608a_is_awake+0x20>
    884c:	e5dd3005 	ldrb	r3, [sp, #5]
    8850:	e3530011 	cmp	r3, #17, 0
    8854:	1afffff4 	bne	882c <atecc608a_is_awake+0x20>
    8858:	e3a00001 	mov	r0, #1, 0
    885c:	eafffff5 	b	8838 <atecc608a_is_awake+0x2c>
    8860:	e5dd3004 	ldrb	r3, [sp, #4]
    8864:	e3530004 	cmp	r3, #4, 0
    8868:	13a00000 	movne	r0, #0, 0
    886c:	1afffff1 	bne	8838 <atecc608a_is_awake+0x2c>
    8870:	e5dd3005 	ldrb	r3, [sp, #5]
    8874:	e35300ff 	cmp	r3, #255, 0	; 0xff
    8878:	13530001 	cmpne	r3, #1, 0
    887c:	03a00000 	moveq	r0, #0, 0
    8880:	0affffec 	beq	8838 <atecc608a_is_awake+0x2c>
    8884:	e3a00001 	mov	r0, #1, 0
    8888:	eaffffea 	b	8838 <atecc608a_is_awake+0x2c>

0000888c <atecc608a_wakeup>:
    888c:	e92d4030 	push	{r4, r5, lr}
    8890:	e24dd024 	sub	sp, sp, #36, 0	; 0x24
    8894:	e59f410c 	ldr	r4, [pc, #268]	; 89a8 <atecc608a_wakeup+0x11c>
    8898:	e1a00004 	mov	r0, r4
    889c:	ebfffde2 	bl	802c <GET32>
    88a0:	e1a05000 	mov	r5, r0
    88a4:	e59f1100 	ldr	r1, [pc, #256]	; 89ac <atecc608a_wakeup+0x120>
    88a8:	e1a00004 	mov	r0, r4
    88ac:	ebfffddc 	bl	8024 <PUT32>
    88b0:	e3a00002 	mov	r0, #2, 0
    88b4:	eb0002a9 	bl	9360 <gpio_set_output>
    88b8:	e3a01000 	mov	r1, #0, 0
    88bc:	e3a00002 	mov	r0, #2, 0
    88c0:	eb0002d2 	bl	9410 <gpio_write>
    88c4:	e3a00050 	mov	r0, #80, 0	; 0x50
    88c8:	eb000200 	bl	90d0 <delay_us>
    88cc:	e3a01001 	mov	r1, #1, 0
    88d0:	e3a00002 	mov	r0, #2, 0
    88d4:	eb0002cd 	bl	9410 <gpio_write>
    88d8:	e3a00002 	mov	r0, #2, 0
    88dc:	eb0002c7 	bl	9400 <gpio_set_input>
    88e0:	e3a00002 	mov	r0, #2, 0
    88e4:	eb000321 	bl	9570 <gpio_set_pullup>
    88e8:	e1a01005 	mov	r1, r5
    88ec:	e1a00004 	mov	r0, r4
    88f0:	ebfffdcb 	bl	8024 <PUT32>
    88f4:	e3a00002 	mov	r0, #2, 0
    88f8:	eb0001fd 	bl	90f4 <delay_ms>
    88fc:	e3a02004 	mov	r2, #4, 0
    8900:	e1a0100d 	mov	r1, sp
    8904:	e3a00060 	mov	r0, #96, 0	; 0x60
    8908:	ebfffed2 	bl	8458 <i2c_read>
    890c:	e3500000 	cmp	r0, #0, 0
    8910:	ba00000a 	blt	8940 <atecc608a_wakeup+0xb4>
    8914:	e5dd1000 	ldrb	r1, [sp]
    8918:	e59f0090 	ldr	r0, [pc, #144]	; 89b0 <atecc608a_wakeup+0x124>
    891c:	eb000087 	bl	8b40 <printk>
    8920:	e5dd2000 	ldrb	r2, [sp]
    8924:	e2423002 	sub	r3, r2, #2, 0
    8928:	e6ef3073 	uxtb	r3, r3
    892c:	e353001d 	cmp	r3, #29, 0
    8930:	9a000006 	bls	8950 <atecc608a_wakeup+0xc4>
    8934:	e3a00000 	mov	r0, #0, 0
    8938:	e28dd024 	add	sp, sp, #36, 0	; 0x24
    893c:	e8bd8030 	pop	{r4, r5, pc}
    8940:	e59f006c 	ldr	r0, [pc, #108]	; 89b4 <atecc608a_wakeup+0x128>
    8944:	eb00007d 	bl	8b40 <printk>
    8948:	e3e00000 	mvn	r0, #0, 0
    894c:	eafffff9 	b	8938 <atecc608a_wakeup+0xac>
    8950:	e2422001 	sub	r2, r2, #1, 0
    8954:	e28d1001 	add	r1, sp, #1, 0
    8958:	e3a00060 	mov	r0, #96, 0	; 0x60
    895c:	ebfffebd 	bl	8458 <i2c_read>
    8960:	e5dd1000 	ldrb	r1, [sp]
    8964:	e59f004c 	ldr	r0, [pc, #76]	; 89b8 <atecc608a_wakeup+0x12c>
    8968:	eb000074 	bl	8b40 <printk>
    896c:	e3a04000 	mov	r4, #0, 0
    8970:	ea000005 	b	898c <atecc608a_wakeup+0x100>
    8974:	e28d3020 	add	r3, sp, #32, 0
    8978:	e0833004 	add	r3, r3, r4
    897c:	e5531020 	ldrb	r1, [r3, #-32]	; 0xffffffe0
    8980:	e59f0034 	ldr	r0, [pc, #52]	; 89bc <atecc608a_wakeup+0x130>
    8984:	eb00006d 	bl	8b40 <printk>
    8988:	e2844001 	add	r4, r4, #1, 0
    898c:	e5dd3000 	ldrb	r3, [sp]
    8990:	e1530004 	cmp	r3, r4
    8994:	cafffff6 	bgt	8974 <atecc608a_wakeup+0xe8>
    8998:	e59f0020 	ldr	r0, [pc, #32]	; 89c0 <atecc608a_wakeup+0x134>
    899c:	eb000067 	bl	8b40 <printk>
    89a0:	e3a00000 	mov	r0, #0, 0
    89a4:	eaffffe3 	b	8938 <atecc608a_wakeup+0xac>
    89a8:	20804014 	.word	0x20804014
    89ac:	000005dc 	.word	0x000005dc
    89b0:	00009924 	.word	0x00009924
    89b4:	000098f8 	.word	0x000098f8
    89b8:	00009940 	.word	0x00009940
    89bc:	00009960 	.word	0x00009960
    89c0:	00009ab4 	.word	0x00009ab4

000089c4 <atecc608a_sleep>:
    89c4:	e52de004 	push	{lr}		; (str lr, [sp, #-4]!)
    89c8:	e24dd00c 	sub	sp, sp, #12, 0
    89cc:	e3a02001 	mov	r2, #1, 0
    89d0:	e5cd2007 	strb	r2, [sp, #7]
    89d4:	e28d1007 	add	r1, sp, #7, 0
    89d8:	e3a00060 	mov	r0, #96, 0	; 0x60
    89dc:	ebfffe3f 	bl	82e0 <i2c_write>
    89e0:	e28dd00c 	add	sp, sp, #12, 0
    89e4:	e49df004 	pop	{pc}		; (ldr pc, [sp], #4)

000089e8 <atecc608a_init>:
    89e8:	e52de004 	push	{lr}		; (str lr, [sp, #-4]!)
    89ec:	e24dd024 	sub	sp, sp, #36, 0	; 0x24
    89f0:	ebfffe14 	bl	8248 <i2c_init>
    89f4:	ebffffa4 	bl	888c <atecc608a_wakeup>
    89f8:	e3500000 	cmp	r0, #0, 0
    89fc:	ba000015 	blt	8a58 <atecc608a_init+0x70>
    8a00:	e3a01000 	mov	r1, #0, 0
    8a04:	e5cd101f 	strb	r1, [sp, #31]
    8a08:	e3a03004 	mov	r3, #4, 0
    8a0c:	e5cd3017 	strb	r3, [sp, #23]
    8a10:	e28d3017 	add	r3, sp, #23, 0
    8a14:	e58d3008 	str	r3, [sp, #8]
    8a18:	e28d3018 	add	r3, sp, #24, 0
    8a1c:	e58d3004 	str	r3, [sp, #4]
    8a20:	e3a03001 	mov	r3, #1, 0
    8a24:	e58d3000 	str	r3, [sp]
    8a28:	e28d301f 	add	r3, sp, #31, 0
    8a2c:	e1a02001 	mov	r2, r1
    8a30:	e3a00030 	mov	r0, #48, 0	; 0x30
    8a34:	ebffff05 	bl	8650 <atecc608a_send_command>
    8a38:	e3500000 	cmp	r0, #0, 0
    8a3c:	ba000009 	blt	8a68 <atecc608a_init+0x80>
    8a40:	e59f0030 	ldr	r0, [pc, #48]	; 8a78 <atecc608a_init+0x90>
    8a44:	eb00003d 	bl	8b40 <printk>
    8a48:	ebffffdd 	bl	89c4 <atecc608a_sleep>
    8a4c:	e3a00000 	mov	r0, #0, 0
    8a50:	e28dd024 	add	sp, sp, #36, 0	; 0x24
    8a54:	e49df004 	pop	{pc}		; (ldr pc, [sp], #4)
    8a58:	e59f001c 	ldr	r0, [pc, #28]	; 8a7c <atecc608a_init+0x94>
    8a5c:	eb000037 	bl	8b40 <printk>
    8a60:	e3e00000 	mvn	r0, #0, 0
    8a64:	eafffff9 	b	8a50 <atecc608a_init+0x68>
    8a68:	e59f0010 	ldr	r0, [pc, #16]	; 8a80 <atecc608a_init+0x98>
    8a6c:	eb000033 	bl	8b40 <printk>
    8a70:	e3e00000 	mvn	r0, #0, 0
    8a74:	eafffff5 	b	8a50 <atecc608a_init+0x68>
    8a78:	000099a4 	.word	0x000099a4
    8a7c:	00009968 	.word	0x00009968
    8a80:	00009984 	.word	0x00009984

00008a84 <atecc608a_random>:
    8a84:	e92d4030 	push	{r4, r5, lr}
    8a88:	e24dd03c 	sub	sp, sp, #60, 0	; 0x3c
    8a8c:	e1a04000 	mov	r4, r0
    8a90:	e3a03020 	mov	r3, #32, 0
    8a94:	e5cd3017 	strb	r3, [sp, #23]
    8a98:	e28d3017 	add	r3, sp, #23, 0
    8a9c:	e58d3008 	str	r3, [sp, #8]
    8aa0:	e28d3018 	add	r3, sp, #24, 0
    8aa4:	e58d3004 	str	r3, [sp, #4]
    8aa8:	e3a01000 	mov	r1, #0, 0
    8aac:	e58d1000 	str	r1, [sp]
    8ab0:	e1a03001 	mov	r3, r1
    8ab4:	e1a02001 	mov	r2, r1
    8ab8:	e3a0001b 	mov	r0, #27, 0
    8abc:	ebfffee3 	bl	8650 <atecc608a_send_command>
    8ac0:	e1a05000 	mov	r5, r0
    8ac4:	ebffffbe 	bl	89c4 <atecc608a_sleep>
    8ac8:	e3550000 	cmp	r5, #0, 0
    8acc:	ba00000b 	blt	8b00 <atecc608a_random+0x7c>
    8ad0:	e3a03000 	mov	r3, #0, 0
    8ad4:	ea000004 	b	8aec <atecc608a_random+0x68>
    8ad8:	e28d2038 	add	r2, sp, #56, 0	; 0x38
    8adc:	e0822003 	add	r2, r2, r3
    8ae0:	e5522020 	ldrb	r2, [r2, #-32]	; 0xffffffe0
    8ae4:	e7c42003 	strb	r2, [r4, r3]
    8ae8:	e2833001 	add	r3, r3, #1, 0
    8aec:	e353001f 	cmp	r3, #31, 0
    8af0:	dafffff8 	ble	8ad8 <atecc608a_random+0x54>
    8af4:	e3a00000 	mov	r0, #0, 0
    8af8:	e28dd03c 	add	sp, sp, #60, 0	; 0x3c
    8afc:	e8bd8030 	pop	{r4, r5, pc}
    8b00:	e3e00000 	mvn	r0, #0, 0
    8b04:	eafffffb 	b	8af8 <atecc608a_random+0x74>

00008b08 <atecc608a_sign>:
    8b08:	e92d4010 	push	{r4, lr}
    8b0c:	e1a01000 	mov	r1, r0
    8b10:	e59f0008 	ldr	r0, [pc, #8]	; 8b20 <atecc608a_sign+0x18>
    8b14:	eb000009 	bl	8b40 <printk>
    8b18:	e3e00000 	mvn	r0, #0, 0
    8b1c:	e8bd8010 	pop	{r4, pc}
    8b20:	000099c8 	.word	0x000099c8

00008b24 <atecc608a_verify>:
    8b24:	e92d4010 	push	{r4, lr}
    8b28:	e1a01000 	mov	r1, r0
    8b2c:	e59f0008 	ldr	r0, [pc, #8]	; 8b3c <atecc608a_verify+0x18>
    8b30:	eb000002 	bl	8b40 <printk>
    8b34:	e3e00000 	mvn	r0, #0, 0
    8b38:	e8bd8010 	pop	{r4, pc}
    8b3c:	000099f8 	.word	0x000099f8

00008b40 <printk>:
    8b40:	e92d000f 	push	{r0, r1, r2, r3}
    8b44:	e52de004 	push	{lr}		; (str lr, [sp, #-4]!)
    8b48:	e24dd00c 	sub	sp, sp, #12, 0
    8b4c:	e28d1014 	add	r1, sp, #20, 0
    8b50:	e58d1004 	str	r1, [sp, #4]
    8b54:	e59d0010 	ldr	r0, [sp, #16]
    8b58:	eb000047 	bl	8c7c <vprintk>
    8b5c:	e28dd00c 	add	sp, sp, #12, 0
    8b60:	e49de004 	pop	{lr}		; (ldr lr, [sp], #4)
    8b64:	e28dd010 	add	sp, sp, #16, 0
    8b68:	e12fff1e 	bx	lr

00008b6c <emit_val>:
    8b6c:	e92d4010 	push	{r4, lr}
    8b70:	e24dd030 	sub	sp, sp, #48, 0	; 0x30
    8b74:	e350000a 	cmp	r0, #10, 0
    8b78:	0a000014 	beq	8bd0 <emit_val+0x64>
    8b7c:	e3500010 	cmp	r0, #16, 0
    8b80:	0a000022 	beq	8c10 <emit_val+0xa4>
    8b84:	e3500002 	cmp	r0, #2, 0
    8b88:	0a000006 	beq	8ba8 <emit_val+0x3c>
    8b8c:	e58d0000 	str	r0, [sp]
    8b90:	e3a0301b 	mov	r3, #27, 0
    8b94:	e59f20c0 	ldr	r2, [pc, #192]	; 8c5c <emit_val+0xf0>
    8b98:	e59f10c0 	ldr	r1, [pc, #192]	; 8c60 <emit_val+0xf4>
    8b9c:	e59f00c0 	ldr	r0, [pc, #192]	; 8c64 <emit_val+0xf8>
    8ba0:	ebffffe6 	bl	8b40 <printk>
    8ba4:	eb0000ee 	bl	8f64 <clean_reboot>
    8ba8:	e28d400c 	add	r4, sp, #12, 0
    8bac:	e2012001 	and	r2, r1, #1, 0
    8bb0:	e59f00b0 	ldr	r0, [pc, #176]	; 8c68 <emit_val+0xfc>
    8bb4:	e7d02002 	ldrb	r2, [r0, r2]
    8bb8:	e5c42000 	strb	r2, [r4]
    8bbc:	e2844001 	add	r4, r4, #1, 0
    8bc0:	e3510001 	cmp	r1, #1, 0
    8bc4:	e1a010a1 	lsr	r1, r1, #1
    8bc8:	8afffff7 	bhi	8bac <emit_val+0x40>
    8bcc:	ea00001d 	b	8c48 <emit_val+0xdc>
    8bd0:	e28d400c 	add	r4, sp, #12, 0
    8bd4:	e59f3090 	ldr	r3, [pc, #144]	; 8c6c <emit_val+0x100>
    8bd8:	e0832193 	umull	r2, r3, r3, r1
    8bdc:	e1a031a3 	lsr	r3, r3, #3
    8be0:	e1a00003 	mov	r0, r3
    8be4:	e0833103 	add	r3, r3, r3, lsl #2
    8be8:	e0413083 	sub	r3, r1, r3, lsl #1
    8bec:	e59fc07c 	ldr	ip, [pc, #124]	; 8c70 <emit_val+0x104>
    8bf0:	e7dcc003 	ldrb	ip, [ip, r3]
    8bf4:	e5c4c000 	strb	ip, [r4]
    8bf8:	e2844001 	add	r4, r4, #1, 0
    8bfc:	e1a03001 	mov	r3, r1
    8c00:	e1a01000 	mov	r1, r0
    8c04:	e3530009 	cmp	r3, #9, 0
    8c08:	8afffff1 	bhi	8bd4 <emit_val+0x68>
    8c0c:	ea00000d 	b	8c48 <emit_val+0xdc>
    8c10:	e28d400c 	add	r4, sp, #12, 0
    8c14:	e201200f 	and	r2, r1, #15, 0
    8c18:	e59f0054 	ldr	r0, [pc, #84]	; 8c74 <emit_val+0x108>
    8c1c:	e7d02002 	ldrb	r2, [r0, r2]
    8c20:	e5c42000 	strb	r2, [r4]
    8c24:	e2844001 	add	r4, r4, #1, 0
    8c28:	e351000f 	cmp	r1, #15, 0
    8c2c:	e1a01221 	lsr	r1, r1, #4
    8c30:	8afffff7 	bhi	8c14 <emit_val+0xa8>
    8c34:	ea000003 	b	8c48 <emit_val+0xdc>
    8c38:	e59f3038 	ldr	r3, [pc, #56]	; 8c78 <emit_val+0x10c>
    8c3c:	e5933000 	ldr	r3, [r3]
    8c40:	e5740001 	ldrb	r0, [r4, #-1]!
    8c44:	e12fff33 	blx	r3
    8c48:	e28d300c 	add	r3, sp, #12, 0
    8c4c:	e1540003 	cmp	r4, r3
    8c50:	8afffff8 	bhi	8c38 <emit_val+0xcc>
    8c54:	e28dd030 	add	sp, sp, #48, 0	; 0x30
    8c58:	e8bd8010 	pop	{r4, pc}
    8c5c:	00009ae0 	.word	0x00009ae0
    8c60:	00009a28 	.word	0x00009a28
    8c64:	00009a38 	.word	0x00009a38
    8c68:	00009a5c 	.word	0x00009a5c
    8c6c:	cccccccd 	.word	0xcccccccd
    8c70:	00009a60 	.word	0x00009a60
    8c74:	00009a6c 	.word	0x00009a6c
    8c78:	00009c8c 	.word	0x00009c8c

00008c7c <vprintk>:
    8c7c:	e92d4030 	push	{r4, r5, lr}
    8c80:	e24dd014 	sub	sp, sp, #20, 0
    8c84:	e1a04000 	mov	r4, r0
    8c88:	e58d100c 	str	r1, [sp, #12]
    8c8c:	ea000003 	b	8ca0 <vprintk+0x24>
    8c90:	e59f3288 	ldr	r3, [pc, #648]	; 8f20 <vprintk+0x2a4>
    8c94:	e5933000 	ldr	r3, [r3]
    8c98:	e12fff33 	blx	r3
    8c9c:	e2844001 	add	r4, r4, #1, 0
    8ca0:	e5d40000 	ldrb	r0, [r4]
    8ca4:	e3500000 	cmp	r0, #0, 0
    8ca8:	0a00009a 	beq	8f18 <vprintk+0x29c>
    8cac:	e3500025 	cmp	r0, #37, 0	; 0x25
    8cb0:	1afffff6 	bne	8c90 <vprintk+0x14>
    8cb4:	e2845001 	add	r5, r4, #1, 0
    8cb8:	e5d42001 	ldrb	r2, [r4, #1]
    8cbc:	e2423062 	sub	r3, r2, #98, 0	; 0x62
    8cc0:	e3530016 	cmp	r3, #22, 0
    8cc4:	979ff103 	ldrls	pc, [pc, r3, lsl #2]
    8cc8:	ea00008b 	b	8efc <vprintk+0x280>
    8ccc:	00008d28 	.word	0x00008d28
    8cd0:	00008d68 	.word	0x00008d68
    8cd4:	00008e80 	.word	0x00008e80
    8cd8:	00008efc 	.word	0x00008efc
    8cdc:	00008efc 	.word	0x00008efc
    8ce0:	00008efc 	.word	0x00008efc
    8ce4:	00008efc 	.word	0x00008efc
    8ce8:	00008efc 	.word	0x00008efc
    8cec:	00008efc 	.word	0x00008efc
    8cf0:	00008efc 	.word	0x00008efc
    8cf4:	00008d8c 	.word	0x00008d8c
    8cf8:	00008efc 	.word	0x00008efc
    8cfc:	00008efc 	.word	0x00008efc
    8d00:	00008efc 	.word	0x00008efc
    8d04:	00008e44 	.word	0x00008e44
    8d08:	00008efc 	.word	0x00008efc
    8d0c:	00008efc 	.word	0x00008efc
    8d10:	00008ec4 	.word	0x00008ec4
    8d14:	00008efc 	.word	0x00008efc
    8d18:	00008d48 	.word	0x00008d48
    8d1c:	00008efc 	.word	0x00008efc
    8d20:	00008efc 	.word	0x00008efc
    8d24:	00008e44 	.word	0x00008e44
    8d28:	e59d300c 	ldr	r3, [sp, #12]
    8d2c:	e2832004 	add	r2, r3, #4, 0
    8d30:	e58d200c 	str	r2, [sp, #12]
    8d34:	e5931000 	ldr	r1, [r3]
    8d38:	e3a00002 	mov	r0, #2, 0
    8d3c:	ebffff8a 	bl	8b6c <emit_val>
    8d40:	e1a04005 	mov	r4, r5
    8d44:	eaffffd4 	b	8c9c <vprintk+0x20>
    8d48:	e59d300c 	ldr	r3, [sp, #12]
    8d4c:	e2832004 	add	r2, r3, #4, 0
    8d50:	e58d200c 	str	r2, [sp, #12]
    8d54:	e5931000 	ldr	r1, [r3]
    8d58:	e3a0000a 	mov	r0, #10, 0
    8d5c:	ebffff82 	bl	8b6c <emit_val>
    8d60:	e1a04005 	mov	r4, r5
    8d64:	eaffffcc 	b	8c9c <vprintk+0x20>
    8d68:	e59f31b0 	ldr	r3, [pc, #432]	; 8f20 <vprintk+0x2a4>
    8d6c:	e5932000 	ldr	r2, [r3]
    8d70:	e59d300c 	ldr	r3, [sp, #12]
    8d74:	e2831004 	add	r1, r3, #4, 0
    8d78:	e58d100c 	str	r1, [sp, #12]
    8d7c:	e5930000 	ldr	r0, [r3]
    8d80:	e12fff32 	blx	r2
    8d84:	e1a04005 	mov	r4, r5
    8d88:	eaffffc3 	b	8c9c <vprintk+0x20>
    8d8c:	e2842002 	add	r2, r4, #2, 0
    8d90:	e5d43002 	ldrb	r3, [r4, #2]
    8d94:	e353006c 	cmp	r3, #108, 0	; 0x6c
    8d98:	1a000018 	bne	8e00 <vprintk+0x184>
    8d9c:	e2845003 	add	r5, r4, #3, 0
    8da0:	e5d43003 	ldrb	r3, [r4, #3]
    8da4:	e3530078 	cmp	r3, #120, 0	; 0x78
    8da8:	1a00001b 	bne	8e1c <vprintk+0x1a0>
    8dac:	e59f416c 	ldr	r4, [pc, #364]	; 8f20 <vprintk+0x2a4>
    8db0:	e5943000 	ldr	r3, [r4]
    8db4:	e3a00030 	mov	r0, #48, 0	; 0x30
    8db8:	e12fff33 	blx	r3
    8dbc:	e5943000 	ldr	r3, [r4]
    8dc0:	e3a00078 	mov	r0, #120, 0	; 0x78
    8dc4:	e12fff33 	blx	r3
    8dc8:	e59d300c 	ldr	r3, [sp, #12]
    8dcc:	e2833007 	add	r3, r3, #7, 0
    8dd0:	e3c33007 	bic	r3, r3, #7, 0
    8dd4:	e2832008 	add	r2, r3, #8, 0
    8dd8:	e58d200c 	str	r2, [sp, #12]
    8ddc:	e5934000 	ldr	r4, [r3]
    8de0:	e5931004 	ldr	r1, [r3, #4]
    8de4:	e3510000 	cmp	r1, #0, 0
    8de8:	1a000012 	bne	8e38 <vprintk+0x1bc>
    8dec:	e1a01004 	mov	r1, r4
    8df0:	e3a00010 	mov	r0, #16, 0
    8df4:	ebffff5c 	bl	8b6c <emit_val>
    8df8:	e1a04005 	mov	r4, r5
    8dfc:	eaffffa6 	b	8c9c <vprintk+0x20>
    8e00:	e58d2000 	str	r2, [sp]
    8e04:	e3a0303b 	mov	r3, #59, 0	; 0x3b
    8e08:	e59f2114 	ldr	r2, [pc, #276]	; 8f24 <vprintk+0x2a8>
    8e0c:	e59f1114 	ldr	r1, [pc, #276]	; 8f28 <vprintk+0x2ac>
    8e10:	e59f0114 	ldr	r0, [pc, #276]	; 8f2c <vprintk+0x2b0>
    8e14:	ebffff49 	bl	8b40 <printk>
    8e18:	eb000051 	bl	8f64 <clean_reboot>
    8e1c:	e58d5000 	str	r5, [sp]
    8e20:	e3a0303e 	mov	r3, #62, 0	; 0x3e
    8e24:	e59f20f8 	ldr	r2, [pc, #248]	; 8f24 <vprintk+0x2a8>
    8e28:	e59f10f8 	ldr	r1, [pc, #248]	; 8f28 <vprintk+0x2ac>
    8e2c:	e59f00f8 	ldr	r0, [pc, #248]	; 8f2c <vprintk+0x2b0>
    8e30:	ebffff42 	bl	8b40 <printk>
    8e34:	eb00004a 	bl	8f64 <clean_reboot>
    8e38:	e3a00010 	mov	r0, #16, 0
    8e3c:	ebffff4a 	bl	8b6c <emit_val>
    8e40:	eaffffe9 	b	8dec <vprintk+0x170>
    8e44:	e59f40d4 	ldr	r4, [pc, #212]	; 8f20 <vprintk+0x2a4>
    8e48:	e5943000 	ldr	r3, [r4]
    8e4c:	e3a00030 	mov	r0, #48, 0	; 0x30
    8e50:	e12fff33 	blx	r3
    8e54:	e5943000 	ldr	r3, [r4]
    8e58:	e3a00078 	mov	r0, #120, 0	; 0x78
    8e5c:	e12fff33 	blx	r3
    8e60:	e59d300c 	ldr	r3, [sp, #12]
    8e64:	e2832004 	add	r2, r3, #4, 0
    8e68:	e58d200c 	str	r2, [sp, #12]
    8e6c:	e5931000 	ldr	r1, [r3]
    8e70:	e3a00010 	mov	r0, #16, 0
    8e74:	ebffff3c 	bl	8b6c <emit_val>
    8e78:	e1a04005 	mov	r4, r5
    8e7c:	eaffff86 	b	8c9c <vprintk+0x20>
    8e80:	e59d300c 	ldr	r3, [sp, #12]
    8e84:	e2832004 	add	r2, r3, #4, 0
    8e88:	e58d200c 	str	r2, [sp, #12]
    8e8c:	e5934000 	ldr	r4, [r3]
    8e90:	e3540000 	cmp	r4, #0, 0
    8e94:	ba000004 	blt	8eac <vprintk+0x230>
    8e98:	e1a01004 	mov	r1, r4
    8e9c:	e3a0000a 	mov	r0, #10, 0
    8ea0:	ebffff31 	bl	8b6c <emit_val>
    8ea4:	e1a04005 	mov	r4, r5
    8ea8:	eaffff7b 	b	8c9c <vprintk+0x20>
    8eac:	e59f306c 	ldr	r3, [pc, #108]	; 8f20 <vprintk+0x2a4>
    8eb0:	e5933000 	ldr	r3, [r3]
    8eb4:	e3a0002d 	mov	r0, #45, 0	; 0x2d
    8eb8:	e12fff33 	blx	r3
    8ebc:	e2644000 	rsb	r4, r4, #0, 0
    8ec0:	eafffff4 	b	8e98 <vprintk+0x21c>
    8ec4:	e59d300c 	ldr	r3, [sp, #12]
    8ec8:	e2832004 	add	r2, r3, #4, 0
    8ecc:	e58d200c 	str	r2, [sp, #12]
    8ed0:	e5934000 	ldr	r4, [r3]
    8ed4:	e5d40000 	ldrb	r0, [r4]
    8ed8:	e3500000 	cmp	r0, #0, 0
    8edc:	0a000004 	beq	8ef4 <vprintk+0x278>
    8ee0:	e59f3038 	ldr	r3, [pc, #56]	; 8f20 <vprintk+0x2a4>
    8ee4:	e5933000 	ldr	r3, [r3]
    8ee8:	e12fff33 	blx	r3
    8eec:	e2844001 	add	r4, r4, #1, 0
    8ef0:	eafffff7 	b	8ed4 <vprintk+0x258>
    8ef4:	e1a04005 	mov	r4, r5
    8ef8:	eaffff67 	b	8c9c <vprintk+0x20>
    8efc:	e58d2000 	str	r2, [sp]
    8f00:	e3a03062 	mov	r3, #98, 0	; 0x62
    8f04:	e59f2018 	ldr	r2, [pc, #24]	; 8f24 <vprintk+0x2a8>
    8f08:	e59f1018 	ldr	r1, [pc, #24]	; 8f28 <vprintk+0x2ac>
    8f0c:	e59f001c 	ldr	r0, [pc, #28]	; 8f30 <vprintk+0x2b4>
    8f10:	ebffff0a 	bl	8b40 <printk>
    8f14:	eb000012 	bl	8f64 <clean_reboot>
    8f18:	e28dd014 	add	sp, sp, #20, 0
    8f1c:	e8bd8030 	pop	{r4, r5, pc}
    8f20:	00009c8c 	.word	0x00009c8c
    8f24:	00009aec 	.word	0x00009aec
    8f28:	00009a28 	.word	0x00009a28
    8f2c:	00009a80 	.word	0x00009a80
    8f30:	00009ab8 	.word	0x00009ab8

00008f34 <default_putchar>:
    8f34:	e92d4010 	push	{r4, lr}
    8f38:	e1a04000 	mov	r4, r0
    8f3c:	e6ef0070 	uxtb	r0, r0
    8f40:	eb0000b3 	bl	9214 <uart_put8>
    8f44:	e1a00004 	mov	r0, r4
    8f48:	e8bd8010 	pop	{r4, pc}

00008f4c <rpi_putchar_set>:
    8f4c:	e59f300c 	ldr	r3, [pc, #12]	; 8f60 <rpi_putchar_set+0x14>
    8f50:	e5932000 	ldr	r2, [r3]
    8f54:	e5830000 	str	r0, [r3]
    8f58:	e1a00002 	mov	r0, r2
    8f5c:	e12fff1e 	bx	lr
    8f60:	00009c8c 	.word	0x00009c8c

00008f64 <clean_reboot>:
    8f64:	e92d4010 	push	{r4, lr}
    8f68:	e59f0010 	ldr	r0, [pc, #16]	; 8f80 <clean_reboot+0x1c>
    8f6c:	eb0001c5 	bl	9688 <putk>
    8f70:	eb0000d0 	bl	92b8 <uart_flush_tx>
    8f74:	e3a0000a 	mov	r0, #10, 0
    8f78:	eb00005d 	bl	90f4 <delay_ms>
    8f7c:	eb000039 	bl	9068 <rpi_reboot>
    8f80:	00009af4 	.word	0x00009af4

00008f84 <program_end>:
    8f84:	e59f0000 	ldr	r0, [pc]	; 8f8c <program_end+0x8>
    8f88:	e12fff1e 	bx	lr
    8f8c:	00009c98 	.word	0x00009c98

00008f90 <_cstart>:
    8f90:	e92d4030 	push	{r4, r5, lr}
    8f94:	e24dd00c 	sub	sp, sp, #12, 0
    8f98:	e59f3098 	ldr	r3, [pc, #152]	; 9038 <_cstart+0xa8>
    8f9c:	e59f2098 	ldr	r2, [pc, #152]	; 903c <_cstart+0xac>
    8fa0:	e1530002 	cmp	r3, r2
    8fa4:	33a02000 	movcc	r2, #0, 0
    8fa8:	34c32001 	strbcc	r2, [r3], #1
    8fac:	3afffffa 	bcc	8f9c <_cstart+0xc>
    8fb0:	eb00005b 	bl	9124 <uart_init>
    8fb4:	e3a03001 	mov	r3, #1, 0
    8fb8:	ee0f3f1c 	mcr	15, 0, r3, cr15, cr12, {0}
    8fbc:	e3a02a01 	mov	r2, #4096	; 0x1000
    8fc0:	e3a01000 	mov	r1, #0, 0
    8fc4:	e1a00001 	mov	r0, r1
    8fc8:	eb000186 	bl	95e8 <memset>
    8fcc:	e3a04000 	mov	r4, #0, 0
    8fd0:	e1a05004 	mov	r5, r4
    8fd4:	ea000005 	b	8ff0 <_cstart+0x60>
    8fd8:	e2855001 	add	r5, r5, #1, 0
    8fdc:	e5912000 	ldr	r2, [r1]
    8fe0:	e1a03005 	mov	r3, r5
    8fe4:	e59f0054 	ldr	r0, [pc, #84]	; 9040 <_cstart+0xb0>
    8fe8:	ebfffed4 	bl	8b40 <printk>
    8fec:	e2844001 	add	r4, r4, #1, 0
    8ff0:	e3540b01 	cmp	r4, #1024	; 0x400
    8ff4:	2a000004 	bcs	900c <_cstart+0x7c>
    8ff8:	e1a01104 	lsl	r1, r4, #2
    8ffc:	e5913000 	ldr	r3, [r1]
    9000:	e3530000 	cmp	r3, #0, 0
    9004:	0afffff8 	beq	8fec <_cstart+0x5c>
    9008:	eafffff2 	b	8fd8 <_cstart+0x48>
    900c:	e3550000 	cmp	r5, #0, 0
    9010:	1a000001 	bne	901c <_cstart+0x8c>
    9014:	ebfffc16 	bl	8074 <notmain>
    9018:	ebffffd1 	bl	8f64 <clean_reboot>
    901c:	e58d5000 	str	r5, [sp]
    9020:	e3a0301b 	mov	r3, #27, 0
    9024:	e59f2018 	ldr	r2, [pc, #24]	; 9044 <_cstart+0xb4>
    9028:	e59f1018 	ldr	r1, [pc, #24]	; 9048 <_cstart+0xb8>
    902c:	e59f0018 	ldr	r0, [pc, #24]	; 904c <_cstart+0xbc>
    9030:	ebfffec2 	bl	8b40 <printk>
    9034:	ebffffca 	bl	8f64 <clean_reboot>
    9038:	00009c90 	.word	0x00009c90
    903c:	00009c98 	.word	0x00009c98
    9040:	00009b00 	.word	0x00009b00
    9044:	00009bc4 	.word	0x00009bc4
    9048:	00009b2c 	.word	0x00009b2c
    904c:	00009b94 	.word	0x00009b94

00009050 <dev_barrier>:
    9050:	ea000002 	b	9060 <dsb>

00009054 <dmb>:
    9054:	e3a00000 	mov	r0, #0, 0
    9058:	ee070fba 	mcr	15, 0, r0, cr7, cr10, {5}
    905c:	e12fff1e 	bx	lr

00009060 <dsb>:
    9060:	ee070f9a 	mcr	15, 0, r0, cr7, cr10, {4}
    9064:	e12fff1e 	bx	lr

00009068 <rpi_reboot>:
    9068:	e92d4010 	push	{r4, lr}
    906c:	e3a0000a 	mov	r0, #10, 0
    9070:	eb00001f 	bl	90f4 <delay_ms>
    9074:	e59f1014 	ldr	r1, [pc, #20]	; 9090 <rpi_reboot+0x28>
    9078:	e59f0014 	ldr	r0, [pc, #20]	; 9094 <rpi_reboot+0x2c>
    907c:	ebfffbe8 	bl	8024 <PUT32>
    9080:	e59f1010 	ldr	r1, [pc, #16]	; 9098 <rpi_reboot+0x30>
    9084:	e59f0010 	ldr	r0, [pc, #16]	; 909c <rpi_reboot+0x34>
    9088:	ebfffbe5 	bl	8024 <PUT32>
    908c:	eafffffe 	b	908c <rpi_reboot+0x24>
    9090:	5a000001 	.word	0x5a000001
    9094:	20100024 	.word	0x20100024
    9098:	5a000020 	.word	0x5a000020
    909c:	2010001c 	.word	0x2010001c

000090a0 <timer_get_usec_raw>:
    90a0:	e92d4010 	push	{r4, lr}
    90a4:	e59f0004 	ldr	r0, [pc, #4]	; 90b0 <timer_get_usec_raw+0x10>
    90a8:	ebfffbdf 	bl	802c <GET32>
    90ac:	e8bd8010 	pop	{r4, pc}
    90b0:	20003004 	.word	0x20003004

000090b4 <timer_get_usec>:
    90b4:	e92d4010 	push	{r4, lr}
    90b8:	ebffffe4 	bl	9050 <dev_barrier>
    90bc:	ebfffff7 	bl	90a0 <timer_get_usec_raw>
    90c0:	e1a04000 	mov	r4, r0
    90c4:	ebffffe1 	bl	9050 <dev_barrier>
    90c8:	e1a00004 	mov	r0, r4
    90cc:	e8bd8010 	pop	{r4, pc}

000090d0 <delay_us>:
    90d0:	e92d4070 	push	{r4, r5, r6, lr}
    90d4:	e1a05000 	mov	r5, r0
    90d8:	ebfffff5 	bl	90b4 <timer_get_usec>
    90dc:	e1a04000 	mov	r4, r0
    90e0:	ebfffff3 	bl	90b4 <timer_get_usec>
    90e4:	e0400004 	sub	r0, r0, r4
    90e8:	e1500005 	cmp	r0, r5
    90ec:	3afffffb 	bcc	90e0 <delay_us+0x10>
    90f0:	e8bd8070 	pop	{r4, r5, r6, pc}

000090f4 <delay_ms>:
    90f4:	e92d4010 	push	{r4, lr}
    90f8:	e0603280 	rsb	r3, r0, r0, lsl #5
    90fc:	e0800103 	add	r0, r0, r3, lsl #2
    9100:	e1a00180 	lsl	r0, r0, #3
    9104:	ebfffff1 	bl	90d0 <delay_us>
    9108:	e8bd8010 	pop	{r4, pc}

0000910c <delay_sec>:
    910c:	e92d4010 	push	{r4, lr}
    9110:	e0603280 	rsb	r3, r0, r0, lsl #5
    9114:	e0800103 	add	r0, r0, r3, lsl #2
    9118:	e1a00180 	lsl	r0, r0, #3
    911c:	ebfffff4 	bl	90f4 <delay_ms>
    9120:	e8bd8010 	pop	{r4, pc}

00009124 <uart_init>:
    9124:	e92d4070 	push	{r4, r5, r6, lr}
    9128:	e3a01002 	mov	r1, #2, 0
    912c:	e3a0000e 	mov	r0, #14, 0
    9130:	eb000070 	bl	92f8 <gpio_set_function>
    9134:	e3a01002 	mov	r1, #2, 0
    9138:	e3a0000f 	mov	r0, #15, 0
    913c:	eb00006d 	bl	92f8 <gpio_set_function>
    9140:	ebffffc2 	bl	9050 <dev_barrier>
    9144:	e59f4094 	ldr	r4, [pc, #148]	; 91e0 <uart_init+0xbc>
    9148:	e1a00004 	mov	r0, r4
    914c:	ebfffbb6 	bl	802c <GET32>
    9150:	e3801001 	orr	r1, r0, #1, 0
    9154:	e1a00004 	mov	r0, r4
    9158:	ebfffbb1 	bl	8024 <PUT32>
    915c:	ebffffbb 	bl	9050 <dev_barrier>
    9160:	e284405c 	add	r4, r4, #92, 0	; 0x5c
    9164:	e1a00004 	mov	r0, r4
    9168:	ebfffbaf 	bl	802c <GET32>
    916c:	e3c01007 	bic	r1, r0, #7, 0
    9170:	e1a00004 	mov	r0, r4
    9174:	ebfffbaa 	bl	8024 <PUT32>
    9178:	ebffffb4 	bl	9050 <dev_barrier>
    917c:	e3a01006 	mov	r1, #6, 0
    9180:	e59f005c 	ldr	r0, [pc, #92]	; 91e4 <uart_init+0xc0>
    9184:	ebfffba6 	bl	8024 <PUT32>
    9188:	ebffffb0 	bl	9050 <dev_barrier>
    918c:	e59f5054 	ldr	r5, [pc, #84]	; 91e8 <uart_init+0xc4>
    9190:	e1a00005 	mov	r0, r5
    9194:	ebfffba4 	bl	802c <GET32>
    9198:	e3c01003 	bic	r1, r0, #3, 0
    919c:	e1a00005 	mov	r0, r5
    91a0:	ebfffb9f 	bl	8024 <PUT32>
    91a4:	ebffffa9 	bl	9050 <dev_barrier>
    91a8:	e3a01003 	mov	r1, #3, 0
    91ac:	e59f0038 	ldr	r0, [pc, #56]	; 91ec <uart_init+0xc8>
    91b0:	ebfffb9b 	bl	8024 <PUT32>
    91b4:	ebffffa5 	bl	9050 <dev_barrier>
    91b8:	e59f1030 	ldr	r1, [pc, #48]	; 91f0 <uart_init+0xcc>
    91bc:	e59f0030 	ldr	r0, [pc, #48]	; 91f4 <uart_init+0xd0>
    91c0:	ebfffb97 	bl	8024 <PUT32>
    91c4:	ebffffa1 	bl	9050 <dev_barrier>
    91c8:	e1a00004 	mov	r0, r4
    91cc:	ebfffb96 	bl	802c <GET32>
    91d0:	e3801003 	orr	r1, r0, #3, 0
    91d4:	e1a00004 	mov	r0, r4
    91d8:	ebfffb91 	bl	8024 <PUT32>
    91dc:	e8bd8070 	pop	{r4, r5, r6, pc}
    91e0:	20215004 	.word	0x20215004
    91e4:	20215048 	.word	0x20215048
    91e8:	20215044 	.word	0x20215044
    91ec:	2021504c 	.word	0x2021504c
    91f0:	0000010e 	.word	0x0000010e
    91f4:	20215068 	.word	0x20215068

000091f8 <uart_can_put8>:
    91f8:	e92d4010 	push	{r4, lr}
    91fc:	e59f000c 	ldr	r0, [pc, #12]	; 9210 <uart_can_put8+0x18>
    9200:	ebfffb89 	bl	802c <GET32>
    9204:	e1a002a0 	lsr	r0, r0, #5
    9208:	e2000001 	and	r0, r0, #1, 0
    920c:	e8bd8010 	pop	{r4, pc}
    9210:	20215054 	.word	0x20215054

00009214 <uart_put8>:
    9214:	e92d4010 	push	{r4, lr}
    9218:	e1a04000 	mov	r4, r0
    921c:	ebfffff5 	bl	91f8 <uart_can_put8>
    9220:	e3500000 	cmp	r0, #0, 0
    9224:	0afffffc 	beq	921c <uart_put8+0x8>
    9228:	e1a01004 	mov	r1, r4
    922c:	e59f0008 	ldr	r0, [pc, #8]	; 923c <uart_put8+0x28>
    9230:	ebfffb7b 	bl	8024 <PUT32>
    9234:	e3a00001 	mov	r0, #1, 0
    9238:	e8bd8010 	pop	{r4, pc}
    923c:	20215040 	.word	0x20215040

00009240 <uart_has_data>:
    9240:	e92d4010 	push	{r4, lr}
    9244:	e59f0008 	ldr	r0, [pc, #8]	; 9254 <uart_has_data+0x14>
    9248:	ebfffb77 	bl	802c <GET32>
    924c:	e2000001 	and	r0, r0, #1, 0
    9250:	e8bd8010 	pop	{r4, pc}
    9254:	20215054 	.word	0x20215054

00009258 <uart_get8>:
    9258:	e92d4010 	push	{r4, lr}
    925c:	ebfffff7 	bl	9240 <uart_has_data>
    9260:	e3500000 	cmp	r0, #0, 0
    9264:	0afffffc 	beq	925c <uart_get8+0x4>
    9268:	e59f0008 	ldr	r0, [pc, #8]	; 9278 <uart_get8+0x20>
    926c:	ebfffb6e 	bl	802c <GET32>
    9270:	e6ef0070 	uxtb	r0, r0
    9274:	e8bd8010 	pop	{r4, pc}
    9278:	20215040 	.word	0x20215040

0000927c <uart_get8_async>:
    927c:	e92d4010 	push	{r4, lr}
    9280:	ebffffee 	bl	9240 <uart_has_data>
    9284:	e3500000 	cmp	r0, #0, 0
    9288:	0a000001 	beq	9294 <uart_get8_async+0x18>
    928c:	ebfffff1 	bl	9258 <uart_get8>
    9290:	e8bd8010 	pop	{r4, pc}
    9294:	e3e00000 	mvn	r0, #0, 0
    9298:	e8bd8010 	pop	{r4, pc}

0000929c <uart_tx_is_empty>:
    929c:	e92d4010 	push	{r4, lr}
    92a0:	e59f000c 	ldr	r0, [pc, #12]	; 92b4 <uart_tx_is_empty+0x18>
    92a4:	ebfffb60 	bl	802c <GET32>
    92a8:	e1a00320 	lsr	r0, r0, #6
    92ac:	e2000001 	and	r0, r0, #1, 0
    92b0:	e8bd8010 	pop	{r4, pc}
    92b4:	20215054 	.word	0x20215054

000092b8 <uart_flush_tx>:
    92b8:	e92d4010 	push	{r4, lr}
    92bc:	ebfffff6 	bl	929c <uart_tx_is_empty>
    92c0:	e3500000 	cmp	r0, #0, 0
    92c4:	18bd8010 	popne	{r4, pc}
    92c8:	eb0000fb 	bl	96bc <rpi_wait>
    92cc:	eafffffa 	b	92bc <uart_flush_tx+0x4>

000092d0 <uart_disable>:
    92d0:	e92d4010 	push	{r4, lr}
    92d4:	ebfffff7 	bl	92b8 <uart_flush_tx>
    92d8:	e59f4014 	ldr	r4, [pc, #20]	; 92f4 <uart_disable+0x24>
    92dc:	e1a00004 	mov	r0, r4
    92e0:	ebfffb51 	bl	802c <GET32>
    92e4:	e3c01001 	bic	r1, r0, #1, 0
    92e8:	e1a00004 	mov	r0, r4
    92ec:	ebfffb4c 	bl	8024 <PUT32>
    92f0:	e8bd8010 	pop	{r4, pc}
    92f4:	20215004 	.word	0x20215004

000092f8 <gpio_set_function>:
    92f8:	e350002f 	cmp	r0, #47, 0	; 0x2f
    92fc:	1350001f 	cmpne	r0, #31, 0
    9300:	812fff1e 	bxhi	lr
    9304:	e92d4070 	push	{r4, r5, r6, lr}
    9308:	e1a05001 	mov	r5, r1
    930c:	e3d13007 	bics	r3, r1, #7, 0
    9310:	18bd8070 	popne	{r4, r5, r6, pc}
    9314:	e59f3040 	ldr	r3, [pc, #64]	; 935c <gpio_set_function+0x64>
    9318:	e0832093 	umull	r2, r3, r3, r0
    931c:	e1a031a3 	lsr	r3, r3, #3
    9320:	e1a02003 	mov	r2, r3
    9324:	e0833103 	add	r3, r3, r3, lsl #2
    9328:	e0403083 	sub	r3, r0, r3, lsl #1
    932c:	e0834083 	add	r4, r3, r3, lsl #1
    9330:	e2820302 	add	r0, r2, #134217728	; 0x8000000
    9334:	e2800702 	add	r0, r0, #524288	; 0x80000
    9338:	e1a06100 	lsl	r6, r0, #2
    933c:	e1a00006 	mov	r0, r6
    9340:	ebfffb39 	bl	802c <GET32>
    9344:	e3a01007 	mov	r1, #7, 0
    9348:	e1c01411 	bic	r1, r0, r1, lsl r4
    934c:	e1811415 	orr	r1, r1, r5, lsl r4
    9350:	e1a00006 	mov	r0, r6
    9354:	ebfffb32 	bl	8024 <PUT32>
    9358:	e8bd8070 	pop	{r4, r5, r6, pc}
    935c:	cccccccd 	.word	0xcccccccd

00009360 <gpio_set_output>:
    9360:	e92d4010 	push	{r4, lr}
    9364:	e3a01001 	mov	r1, #1, 0
    9368:	ebffffe2 	bl	92f8 <gpio_set_function>
    936c:	e8bd8010 	pop	{r4, pc}

00009370 <gpio_set_on>:
    9370:	e92d4010 	push	{r4, lr}
    9374:	e350002f 	cmp	r0, #47, 0	; 0x2f
    9378:	0a000006 	beq	9398 <gpio_set_on+0x28>
    937c:	e350001f 	cmp	r0, #31, 0
    9380:	88bd8010 	pophi	{r4, pc}
    9384:	e3a01001 	mov	r1, #1, 0
    9388:	e1a01011 	lsl	r1, r1, r0
    938c:	e59f001c 	ldr	r0, [pc, #28]	; 93b0 <gpio_set_on+0x40>
    9390:	ebfffb23 	bl	8024 <PUT32>
    9394:	e8bd8010 	pop	{r4, pc}
    9398:	e200001f 	and	r0, r0, #31, 0
    939c:	e3a01001 	mov	r1, #1, 0
    93a0:	e1a01011 	lsl	r1, r1, r0
    93a4:	e59f0008 	ldr	r0, [pc, #8]	; 93b4 <gpio_set_on+0x44>
    93a8:	ebfffb1d 	bl	8024 <PUT32>
    93ac:	e8bd8010 	pop	{r4, pc}
    93b0:	2020001c 	.word	0x2020001c
    93b4:	20200020 	.word	0x20200020

000093b8 <gpio_set_off>:
    93b8:	e92d4010 	push	{r4, lr}
    93bc:	e350002f 	cmp	r0, #47, 0	; 0x2f
    93c0:	0a000006 	beq	93e0 <gpio_set_off+0x28>
    93c4:	e350001f 	cmp	r0, #31, 0
    93c8:	88bd8010 	pophi	{r4, pc}
    93cc:	e3a01001 	mov	r1, #1, 0
    93d0:	e1a01011 	lsl	r1, r1, r0
    93d4:	e59f001c 	ldr	r0, [pc, #28]	; 93f8 <gpio_set_off+0x40>
    93d8:	ebfffb11 	bl	8024 <PUT32>
    93dc:	e8bd8010 	pop	{r4, pc}
    93e0:	e200001f 	and	r0, r0, #31, 0
    93e4:	e3a01001 	mov	r1, #1, 0
    93e8:	e1a01011 	lsl	r1, r1, r0
    93ec:	e59f0008 	ldr	r0, [pc, #8]	; 93fc <gpio_set_off+0x44>
    93f0:	ebfffb0b 	bl	8024 <PUT32>
    93f4:	e8bd8010 	pop	{r4, pc}
    93f8:	20200028 	.word	0x20200028
    93fc:	2020002c 	.word	0x2020002c

00009400 <gpio_set_input>:
    9400:	e92d4010 	push	{r4, lr}
    9404:	e3a01000 	mov	r1, #0, 0
    9408:	ebffffba 	bl	92f8 <gpio_set_function>
    940c:	e8bd8010 	pop	{r4, pc}

00009410 <gpio_write>:
    9410:	e92d4010 	push	{r4, lr}
    9414:	e3510000 	cmp	r1, #0, 0
    9418:	0a000001 	beq	9424 <gpio_write+0x14>
    941c:	ebffffd3 	bl	9370 <gpio_set_on>
    9420:	e8bd8010 	pop	{r4, pc}
    9424:	ebffffe3 	bl	93b8 <gpio_set_off>
    9428:	e8bd8010 	pop	{r4, pc}

0000942c <gpio_read>:
    942c:	e350001f 	cmp	r0, #31, 0
    9430:	8a000006 	bhi	9450 <gpio_read+0x24>
    9434:	e92d4010 	push	{r4, lr}
    9438:	e1a04000 	mov	r4, r0
    943c:	e59f0014 	ldr	r0, [pc, #20]	; 9458 <gpio_read+0x2c>
    9440:	ebfffaf9 	bl	802c <GET32>
    9444:	e1a00430 	lsr	r0, r0, r4
    9448:	e2000001 	and	r0, r0, #1, 0
    944c:	e8bd8010 	pop	{r4, pc}
    9450:	e3e00000 	mvn	r0, #0, 0
    9454:	e12fff1e 	bx	lr
    9458:	20200034 	.word	0x20200034

0000945c <using_staff_gpio>:
    945c:	e12fff1e 	bx	lr

00009460 <gpio_set_pud>:
    9460:	e92d4070 	push	{r4, r5, r6, lr}
    9464:	e24dd008 	sub	sp, sp, #8, 0
    9468:	e350001f 	cmp	r0, #31, 0
    946c:	8a000020 	bhi	94f4 <gpio_set_pud+0x94>
    9470:	e1a05000 	mov	r5, r0
    9474:	e1a04001 	mov	r4, r1
    9478:	e3510003 	cmp	r1, #3, 0
    947c:	8a000024 	bhi	9514 <gpio_set_pud+0xb4>
    9480:	e3510002 	cmp	r1, #2, 0
    9484:	8a00002a 	bhi	9534 <gpio_set_pud+0xd4>
    9488:	ebfffef0 	bl	9050 <dev_barrier>
    948c:	e59f60b8 	ldr	r6, [pc, #184]	; 954c <gpio_set_pud+0xec>
    9490:	e1a01004 	mov	r1, r4
    9494:	e1a00006 	mov	r0, r6
    9498:	ebfffae1 	bl	8024 <PUT32>
    949c:	e3a00096 	mov	r0, #150, 0	; 0x96
    94a0:	ebffff0a 	bl	90d0 <delay_us>
    94a4:	e59f40a4 	ldr	r4, [pc, #164]	; 9550 <gpio_set_pud+0xf0>
    94a8:	e3a01001 	mov	r1, #1, 0
    94ac:	e1a01511 	lsl	r1, r1, r5
    94b0:	e1a00004 	mov	r0, r4
    94b4:	ebfffada 	bl	8024 <PUT32>
    94b8:	e3a00096 	mov	r0, #150, 0	; 0x96
    94bc:	ebffff03 	bl	90d0 <delay_us>
    94c0:	e3a01000 	mov	r1, #0, 0
    94c4:	e1a00006 	mov	r0, r6
    94c8:	ebfffad5 	bl	8024 <PUT32>
    94cc:	e3a00096 	mov	r0, #150, 0	; 0x96
    94d0:	ebfffefe 	bl	90d0 <delay_us>
    94d4:	e3a01000 	mov	r1, #0, 0
    94d8:	e1a00004 	mov	r0, r4
    94dc:	ebfffad0 	bl	8024 <PUT32>
    94e0:	e3a00096 	mov	r0, #150, 0	; 0x96
    94e4:	ebfffef9 	bl	90d0 <delay_us>
    94e8:	ebfffed8 	bl	9050 <dev_barrier>
    94ec:	e28dd008 	add	sp, sp, #8, 0
    94f0:	e8bd8070 	pop	{r4, r5, r6, pc}
    94f4:	e59f3058 	ldr	r3, [pc, #88]	; 9554 <gpio_set_pud+0xf4>
    94f8:	e58d3000 	str	r3, [sp]
    94fc:	e3a03012 	mov	r3, #18, 0
    9500:	e59f2050 	ldr	r2, [pc, #80]	; 9558 <gpio_set_pud+0xf8>
    9504:	e59f1050 	ldr	r1, [pc, #80]	; 955c <gpio_set_pud+0xfc>
    9508:	e59f0050 	ldr	r0, [pc, #80]	; 9560 <gpio_set_pud+0x100>
    950c:	ebfffd8b 	bl	8b40 <printk>
    9510:	ebfffe93 	bl	8f64 <clean_reboot>
    9514:	e59f3048 	ldr	r3, [pc, #72]	; 9564 <gpio_set_pud+0x104>
    9518:	e58d3000 	str	r3, [sp]
    951c:	e3a03013 	mov	r3, #19, 0
    9520:	e59f2030 	ldr	r2, [pc, #48]	; 9558 <gpio_set_pud+0xf8>
    9524:	e59f1030 	ldr	r1, [pc, #48]	; 955c <gpio_set_pud+0xfc>
    9528:	e59f0038 	ldr	r0, [pc, #56]	; 9568 <gpio_set_pud+0x108>
    952c:	ebfffd83 	bl	8b40 <printk>
    9530:	ebfffe8b 	bl	8f64 <clean_reboot>
    9534:	e3a03018 	mov	r3, #24, 0
    9538:	e59f2018 	ldr	r2, [pc, #24]	; 9558 <gpio_set_pud+0xf8>
    953c:	e59f1018 	ldr	r1, [pc, #24]	; 955c <gpio_set_pud+0xfc>
    9540:	e59f0024 	ldr	r0, [pc, #36]	; 956c <gpio_set_pud+0x10c>
    9544:	ebfffd7d 	bl	8b40 <printk>
    9548:	ebfffe85 	bl	8f64 <clean_reboot>
    954c:	20200094 	.word	0x20200094
    9550:	20200098 	.word	0x20200098
    9554:	00009c18 	.word	0x00009c18
    9558:	00009c7c 	.word	0x00009c7c
    955c:	00009bd4 	.word	0x00009bd4
    9560:	00009be0 	.word	0x00009be0
    9564:	00009c5c 	.word	0x00009c5c
    9568:	00009c24 	.word	0x00009c24
    956c:	00009c64 	.word	0x00009c64

00009570 <gpio_set_pullup>:
    9570:	e92d4010 	push	{r4, lr}
    9574:	e3a01002 	mov	r1, #2, 0
    9578:	ebffffb8 	bl	9460 <gpio_set_pud>
    957c:	e8bd8010 	pop	{r4, pc}

00009580 <gpio_set_pulldown>:
    9580:	e92d4010 	push	{r4, lr}
    9584:	e3a01001 	mov	r1, #1, 0
    9588:	ebffffb4 	bl	9460 <gpio_set_pud>
    958c:	e8bd8010 	pop	{r4, pc}

00009590 <gpio_pud_off>:
    9590:	e92d4010 	push	{r4, lr}
    9594:	e3a01000 	mov	r1, #0, 0
    9598:	ebffffb0 	bl	9460 <gpio_set_pud>
    959c:	e8bd8010 	pop	{r4, pc}

000095a0 <gpio_get_pud>:
    95a0:	e92d4010 	push	{r4, lr}
    95a4:	e59f0008 	ldr	r0, [pc, #8]	; 95b4 <gpio_get_pud+0x14>
    95a8:	ebfffa9f 	bl	802c <GET32>
    95ac:	e2000003 	and	r0, r0, #3, 0
    95b0:	e8bd8010 	pop	{r4, pc}
    95b4:	20200094 	.word	0x20200094

000095b8 <gpio_is_pullup>:
    95b8:	e92d4010 	push	{r4, lr}
    95bc:	ebfffff7 	bl	95a0 <gpio_get_pud>
    95c0:	e3500002 	cmp	r0, #2, 0
    95c4:	13a00000 	movne	r0, #0, 0
    95c8:	03a00001 	moveq	r0, #1, 0
    95cc:	e8bd8010 	pop	{r4, pc}

000095d0 <gpio_is_pulldown>:
    95d0:	e92d4010 	push	{r4, lr}
    95d4:	ebfffff1 	bl	95a0 <gpio_get_pud>
    95d8:	e3500001 	cmp	r0, #1, 0
    95dc:	13a00000 	movne	r0, #0, 0
    95e0:	03a00001 	moveq	r0, #1, 0
    95e4:	e8bd8010 	pop	{r4, pc}

000095e8 <memset>:
    95e8:	e3520000 	cmp	r2, #0, 0
    95ec:	012fff1e 	bxeq	lr
    95f0:	e3510000 	cmp	r1, #0, 0
    95f4:	1a000007 	bne	9618 <memset+0x30>
    95f8:	e3100007 	tst	r0, #7, 0
    95fc:	1a000001 	bne	9608 <memset+0x20>
    9600:	e3120007 	tst	r2, #7, 0
    9604:	0a000011 	beq	9650 <memset+0x68>
    9608:	e3100003 	tst	r0, #3, 0
    960c:	1a000001 	bne	9618 <memset+0x30>
    9610:	e3120003 	tst	r2, #3, 0
    9614:	0a000001 	beq	9620 <memset+0x38>
    9618:	e0802002 	add	r2, r0, r2
    961c:	ea000008 	b	9644 <memset+0x5c>
    9620:	e1a02122 	lsr	r2, r2, #2
    9624:	ea000001 	b	9630 <memset+0x48>
    9628:	e4801004 	str	r1, [r0], #4
    962c:	e1a02003 	mov	r2, r3
    9630:	e2423001 	sub	r3, r2, #1, 0
    9634:	e3520000 	cmp	r2, #0, 0
    9638:	1afffffa 	bne	9628 <memset+0x40>
    963c:	e12fff1e 	bx	lr
    9640:	e4c01001 	strb	r1, [r0], #1
    9644:	e1500002 	cmp	r0, r2
    9648:	3afffffc 	bcc	9640 <memset+0x58>
    964c:	e12fff1e 	bx	lr
    9650:	e1a021a2 	lsr	r2, r2, #3
    9654:	e2423001 	sub	r3, r2, #1, 0
    9658:	e3520000 	cmp	r2, #0, 0
    965c:	012fff1e 	bxeq	lr
    9660:	e92d0030 	push	{r4, r5}
    9664:	e1a04001 	mov	r4, r1
    9668:	e1a05fc1 	asr	r5, r1, #31
    966c:	e0c040f8 	strd	r4, [r0], #8
    9670:	e1a02003 	mov	r2, r3
    9674:	e2433001 	sub	r3, r3, #1, 0
    9678:	e3520000 	cmp	r2, #0, 0
    967c:	1afffff8 	bne	9664 <memset+0x7c>
    9680:	e8bd0030 	pop	{r4, r5}
    9684:	e12fff1e 	bx	lr

00009688 <putk>:
    9688:	e92d4010 	push	{r4, lr}
    968c:	e1a04000 	mov	r4, r0
    9690:	e5d40000 	ldrb	r0, [r4]
    9694:	e3500000 	cmp	r0, #0, 0
    9698:	0a000004 	beq	96b0 <putk+0x28>
    969c:	e59f3014 	ldr	r3, [pc, #20]	; 96b8 <putk+0x30>
    96a0:	e5933000 	ldr	r3, [r3]
    96a4:	e12fff33 	blx	r3
    96a8:	e2844001 	add	r4, r4, #1, 0
    96ac:	eafffff7 	b	9690 <putk+0x8>
    96b0:	e3a00001 	mov	r0, #1, 0
    96b4:	e8bd8010 	pop	{r4, pc}
    96b8:	00009c8c 	.word	0x00009c8c

000096bc <rpi_wait>:
    96bc:	e12fff1e 	bx	lr
